(lp0
(lp1
S'401DE0440DWR.csv'
p2
aI4320
aI90
aI1
aa(lp3
S'401DE0590DEC.csv'
p4
aI4320
aI90
aI1
aa(lp5
S'QEWDE0450DSR.csv'
p6
aI4320
aI90
aI1
aa(lp7
S'401DE0390DEC.csv'
p8
aI4320
aI90
aI1
aa(lp9
S'400DN0070DSS.csv'
p10
aI4320
aI90
aI1
aa(lp11
S'QEWDE0330DES.csv'
p12
aI4320
aI90
aI1
aa(lp13
S'401DW0410DWR.csv'
p14
aI4320
aI90
aI1
aa(lp15
S'401DE0540DWC.csv'
p16
aI4320
aI90
aI1
aa(lp17
S'QEWDE0520DWS.csv'
p18
aI4320
aI90
aI1
aa(lp19
S'410DN0030DER.csv'
p20
aI4320
aI90
aI1
aa(lp21
S'410DN0230DWS.csv'
p22
aI4320
aI90
aI1
aa(lp23
S'403DN0010DWF.csv'
p24
aI4320
aI90
aI1
aa(lp25
S'QEWDE0010DES.csv'
p26
aI4320
aI90
aI1
aa(lp27
S'404DN0061DSH.csv'
p28
aI4320
aI90
aI1
aa(lp29
S'401DW0050DEC.csv'
p30
aI4320
aI90
aI1
aa(lp31
S'401DW0020DES.csv'
p32
aI4320
aI90
aI1
aa(lp33
S'400DN0080DSS.csv'
p34
aI4320
aI90
aI1
aa(lp35
S'401DW0040DNF.csv'
p36
aI4320
aI90
aI1
aa(lp37
S'QEWDE0300DES.csv'
p38
aI4320
aI90
aI1
aa(lp39
S'410DN0211DWS.csv'
p40
aI4320
aI90
aI1
aa(lp41
S'QEWDE0120DER.csv'
p42
aI4320
aI90
aI1
aa(lp43
S'401DE0460DEE.csv'
p44
aI4320
aI90
aI1
aa(lp45
S'404DN0081DSH.csv'
p46
aI4320
aI90
aI1
aa(lp47
S'410DW0010DER.csv'
p48
aI4320
aI90
aI1
aa(lp49
S'403DN0030DWF.csv'
p50
aI4320
aI90
aI1
aa(lp51
S'QEWDE0440DSR.csv'
p52
aI4320
aI90
aI1
aa(lp53
S'401DW0070DWC.csv'
p54
aI4320
aI90
aI1
aa(lp55
S'401DE0250DWE.csv'
p56
aI4320
aI90
aI1
aa(lp57
S'404DN0090DWR.csv'
p58
aI4320
aI90
aI1
aa(lp59
S'410DN0090DWS.csv'
p60
aI4320
aI90
aI1
aa(lp61
S'401DW0030DET.csv'
p62
aI4320
aI90
aI1
aa(lp63
S'401DE0130DEC.csv'
p64
aI4320
aI90
aI1
aa(lp65
S'401DE0180DWC.csv'
p66
aI4320
aI90
aI1
aa(lp67
S'QEWDE0500DWR.csv'
p68
aI4320
aI90
aI1
aa(lp69
S'401DE0900DNR.csv'
p70
aI4320
aI90
aI1
aa(lp71
S'QEWDE0390DNR.csv'
p72
aI4320
aI90
aI1
aa(lp73
S'400DN0100DNS.csv'
p74
aI4320
aI90
aI1
aa(lp75
S'401DE0350DWC.csv'
p76
aI4320
aI90
aI1
aa(lp77
S'401DE0210DEC.csv'
p78
aI4320
aI90
aI1
aa(lp79
S'401DE0520DEC.csv'
p80
aI4320
aI90
aI1
aa(lp81
S'401DE0190DET.csv'
p82
aI4320
aI90
aI1
aa(lp83
S'401DE0470DWE.csv'
p84
aI4320
aI90
aI1
aa(lp85
S'401DE0430DWE.csv'
p86
aI4320
aI90
aI1
aa(lp87
S'401DE0010DWT.csv'
p88
aI4320
aI90
aI1
aa(lp89
S'401DE0360DWE.csv'
p90
aI4320
aI90
aI1
aa(lp91
S'401DW0010DWS.csv'
p92
aI4320
aI90
aI1
aa(lp93
S'404DN0060DNR.csv'
p94
aI4320
aI90
aI1
aa(lp95
S'410DW0080DWR.csv'
p96
aI4320
aI90
aI1
aa(lp97
S'401DW0240DEE.csv'
p98
aI4320
aI90
aI1
aa(lp99
S'410DN0030DNS.csv'
p100
aI4320
aI90
aI1
aa(lp101
S'401DE0060DWT.csv'
p102
aI4320
aI90
aI1
aa(lp103
S'401DE0190DSR.csv'
p104
aI4320
aI90
aI1
aa(lp105
S'QEWDE0370DNR.csv'
p106
aI4320
aI90
aI1
aa(lp107
S'410DN0151DWS.csv'
p108
aI4320
aI90
aI1
aa(lp109
S'400DN0059DSS.csv'
p110
aI4320
aI90
aI1
aa(lp111
S'401DE1330DSR.csv'
p112
aI4320
aI90
aI1
aa(lp113
S'QEWDE0290DWS.csv'
p114
aI4320
aI90
aI1
aa(lp115
S'400DN0010DSS.csv'
p116
aI4320
aI90
aI1
aa(lp117
S'QEWDS0070DNS.csv'
p118
aI4320
aI90
aI1
aa(lp119
S'401DE1460DER.csv'
p120
aI4320
aI90
aI1
aa(lp121
S'401DW0220DEE.csv'
p122
aI4320
aI90
aI1
aa(lp123
S'401DW0120DWC.csv'
p124
aI4320
aI90
aI1
aa(lp125
S'401DE0420DWC.csv'
p126
aI4320
aI90
aI1
aa(lp127
S'401DE0270DWE.csv'
p128
aI4320
aI90
aI1
aa(lp129
S'400DN0058DSS.csv'
p130
aI4320
aI90
aI1
aa(lp131
S'401DE0540DEC.csv'
p132
aI4320
aI90
aI1
aa(lp133
S'401DE0020DWS.csv'
p134
aI4320
aI90
aI1
aa(lp135
S'401DW0070DSR.csv'
p136
aI4320
aI90
aI1
aa(lp137
S'401DE0540DWR.csv'
p138
aI4320
aI90
aI1
aa(lp139
S'401DE0170DWE.csv'
p140
aI4320
aI90
aI1
aa(lp141
S'QEWDS0080DNR.csv'
p142
aI4320
aI90
aI1
aa(lp143
S'QEWDE0080DES.csv'
p144
aI4320
aI90
aI1
aa(lp145
S'401DE0400DEE.csv'
p146
aI4320
aI90
aI1
aa(lp147
S'401DE0150DET.csv'
p148
aI4320
aI90
aI1
aa(lp149
S'QEWDE0170DES.csv'
p150
aI4320
aI90
aI1
aa(lp151
S'QEWDS0060DNR.csv'
p152
aI4320
aI90
aI1
aa(lp153
S'QEWDE0490DWS.csv'
p154
aI4320
aI90
aI1
aa(lp155
S'401DW0020DWR.csv'
p156
aI4320
aI90
aI1
aa(lp157
S'401DE0190DEE.csv'
p158
aI4320
aI90
aI1
aa(lp159
S'401DW0140DER.csv'
p160
aI4320
aI90
aI1
aa(lp161
S'QEWDN0050DNR.csv'
p162
aI4320
aI90
aI1
aa(lp163
S'QEWDE0070DWR.csv'
p164
aI4320
aI90
aI1
aa(lp165
S'QEWDE0520DES.csv'
p166
aI4320
aI90
aI1
aa(lp167
S'QEWDS0030DNR.csv'
p168
aI4320
aI90
aI1
aa(lp169
S'QEWDE0101DWS.csv'
p170
aI4320
aI90
aI1
aa(lp171
S'401DE0010DEC.csv'
p172
aI4320
aI90
aI1
aa(lp173
S'QEWDE0210DWR.csv'
p174
aI4320
aI90
aI1
aa(lp175
S'410DN0241DWS.csv'
p176
aI4320
aI90
aI1
aa(lp177
S'401DE0180DNR.csv'
p178
aI4320
aI90
aI1
aa(lp179
S'QEWDE0261DWS.csv'
p180
aI4320
aI90
aI1
aa(lp181
S'QEWDE0310DES.csv'
p182
aI4320
aI90
aI1
aa(lp183
S'QEWDS0020DSS.csv'
p184
aI4320
aI90
aI1
aa(lp185
S'401DE0490DWE.csv'
p186
aI4320
aI90
aI1
aa(lp187
S'401DE0170DNR.csv'
p188
aI4320
aI90
aI1
aa(lp189
S'401DE1170DER.csv'
p190
aI4320
aI90
aI1
aa(lp191
S'401DE0160DWC.csv'
p192
aI4320
aI90
aI1
aa(lp193
S'404DN0070DSR.csv'
p194
aI4320
aI90
aI1
aa(lp195
S'401DW0310DEE.csv'
p196
aI4320
aI90
aI1
aa(lp197
S'401DW0440DER.csv'
p198
aI4320
aI90
aI1
aa(lp199
S'QEWDE0430DSR.csv'
p200
aI4320
aI90
aI1
aa(lp201
S'401DE0280DWE.csv'
p202
aI4320
aI90
aI1
aa(lp203
S'QEWDE0040DWS.csv'
p204
aI4320
aI90
aI1
aa(lp205
S'401DW0090DWC.csv'
p206
aI4320
aI90
aI1
aa(lp207
S'QEWDE0221DWS.csv'
p208
aI4320
aI90
aI1
aa(lp209
S'401DW0160DWR.csv'
p210
aI4320
aI90
aI1
aa(lp211
S'QEWDN0020DNR.csv'
p212
aI4320
aI90
aI1
aa(lp213
S'401DE0770DSR.csv'
p214
aI4320
aI90
aI1
aa(lp215
S'401DW0470DSR.csv'
p216
aI4320
aI90
aI1
aa(lp217
S'QEWDE0360DWS.csv'
p218
aI4320
aI90
aI1
aa(lp219
S'401DW0090DER.csv'
p220
aI4320
aI90
aI1
aa(lp221
S'401DW0220DWE.csv'
p222
aI4320
aI90
aI1
aa(lp223
S'410DN0250DES.csv'
p224
aI4320
aI90
aI1
aa(lp225
S'410DN0161DES.csv'
p226
aI4320
aI90
aI1
aa(lp227
S'QEWDE0271DES.csv'
p228
aI4320
aI90
aI1
aa(lp229
S'410DN0230DER.csv'
p230
aI4320
aI90
aI1
aa(lp231
S'410DW0010DNR.csv'
p232
aI4320
aI90
aI1
aa(lp233
S'QEWDE0231DWS.csv'
p234
aI4320
aI90
aI1
aa(lp235
S'401DE0430DWC.csv'
p236
aI4320
aI90
aI1
aa(lp237
S'401DW0090DWS.csv'
p238
aI4320
aI90
aI1
aa(lp239
S'401DE1190DWR.csv'
p240
aI4320
aI90
aI1
aa(lp241
S'401DE1210DNR.csv'
p242
aI4320
aI90
aI1
aa(lp243
S'401DW0400DWR.csv'
p244
aI4320
aI90
aI1
aa(lp245
S'410DN0210DWR.csv'
p246
aI4320
aI90
aI1
aa(lp247
S'410DN0211DES.csv'
p248
aI4320
aI90
aI1
aa(lp249
S'401DE1400DWR.csv'
p250
aI4320
aI90
aI1
aa(lp251
S'QEWDE0465DES.csv'
p252
aI4320
aI90
aI1
aa(lp253
S'401DE0560DEC.csv'
p254
aI4320
aI90
aI1
aa(lp255
S'400DN0040DSR.csv'
p256
aI4320
aI90
aI1
aa(lp257
S'401DE0140DWT.csv'
p258
aI4320
aI90
aI1
aa(lp259
S'401DE0240DWE.csv'
p260
aI4320
aI90
aI1
aa(lp261
S'401DE0530DWC.csv'
p262
aI4320
aI90
aI1
aa(lp263
S'401DW0090DNF.csv'
p264
aI4320
aI90
aI1
aa(lp265
S'401DE0470DEE.csv'
p266
aI4320
aI90
aI1
aa(lp267
S'401DE0500DWR.csv'
p268
aI4320
aI90
aI1
aa(lp269
S'401DE0220DWE.csv'
p270
aI4320
aI90
aI1
aa(lp271
S'410DN0141DWS.csv'
p272
aI4320
aI90
aI1
aa(lp273
S'400DN0020DNE.csv'
p274
aI4320
aI90
aI1
aa(lp275
S'401DE1160DWR.csv'
p276
aI4320
aI90
aI1
aa(lp277
S'401DE0320DWE.csv'
p278
aI4320
aI90
aI1
aa(lp279
S'QEWDE0240DWS.csv'
p280
aI4320
aI90
aI1
aa(lp281
S'404DN0090DNS.csv'
p282
aI4320
aI90
aI1
aa(lp283
S'404DN0050DWR.csv'
p284
aI4320
aI90
aI1
aa(lp285
S'401DE0500DEE.csv'
p286
aI4320
aI90
aI1
aa(lp287
S'400DN0010DNE.csv'
p288
aI4320
aI90
aI1
aa(lp289
S'QEWDE0450DES.csv'
p290
aI4320
aI90
aI1
aa(lp291
S'QEWDE0030DER.csv'
p292
aI4320
aI90
aI1
aa(lp293
S'400DN0030DSE.csv'
p294
aI4320
aI90
aI1
aa(lp295
S'410DN0111DES.csv'
p296
aI4320
aI90
aI1
aa(lp297
S'QEWDE0110DER.csv'
p298
aI4320
aI90
aI1
aa(lp299
S'404DN0030DNS.csv'
p300
aI4320
aI90
aI1
aa(lp301
S'401DE0510DER.csv'
p302
aI4320
aI90
aI1
aa(lp303
S'401DW0270DEE.csv'
p304
aI4320
aI90
aI1
aa(lp305
S'401DW0040DWS.csv'
p306
aI4320
aI90
aI1
aa(lp307
S'404DN0060DSS.csv'
p308
aI4320
aI90
aI1
aa(lp309
S'QEWDE0330DSR.csv'
p310
aI4320
aI90
aI1
aa(lp311
S'401DW0250DER.csv'
p312
aI4320
aI90
aI1
aa(lp313
S'401DE0500DWC.csv'
p314
aI4320
aI90
aI1
aa(lp315
S'QEWDE0490DWR.csv'
p316
aI4320
aI90
aI1
aa(lp317
S'401DE0420DWE.csv'
p318
aI4320
aI90
aI1
aa(lp319
S'401DW0070DWE.csv'
p320
aI4320
aI90
aI1
aa(lp321
S'401DE0550DEC.csv'
p322
aI4320
aI90
aI1
aa(lp323
S'410DW0080DNR.csv'
p324
aI4320
aI90
aI1
aa(lp325
S'404DN0101DSH.csv'
p326
aI4320
aI90
aI1
aa(lp327
S'410DN0151DES.csv'
p328
aI4320
aI90
aI1
aa(lp329
S'410DN0120DES.csv'
p330
aI4320
aI90
aI1
aa(lp331
S'401DE0020DEE.csv'
p332
aI4320
aI90
aI1
aa(lp333
S'401DE0516DWR.csv'
p334
aI4320
aI90
aI1
aa(lp335
S'QEWDE0110DWS.csv'
p336
aI4320
aI90
aI1
aa(lp337
S'400DN0050DSE.csv'
p338
aI4320
aI90
aI1
aa(lp339
S'401DW0010DNF.csv'
p340
aI4320
aI90
aI1
aa(lp341
S'QEWDE0340DWS.csv'
p342
aI4320
aI90
aI1
aa(lp343
S'401DE0170DEE.csv'
p344
aI4320
aI90
aI1
aa(lp345
S'401DE0410DEC.csv'
p346
aI4320
aI90
aI1
aa(lp347
S'QEWDE0191DWS.csv'
p348
aI4320
aI90
aI1
aa(lp349
S'401DW0170DEC.csv'
p350
aI4320
aI90
aI1
aa(lp351
S'401DE0410DSR.csv'
p352
aI4320
aI90
aI1
aa(lp353
S'401DE0290DWC.csv'
p354
aI4320
aI90
aI1
aa(lp355
S'401DE0260DEE.csv'
p356
aI4320
aI90
aI1
aa(lp357
S'401DW0080DEE.csv'
p358
aI4320
aI90
aI1
aa(lp359
S'401DW0020DWS.csv'
p360
aI4320
aI90
aI1
aa(lp361
S'401DE0070DSR.csv'
p362
aI4320
aI90
aI1
aa(lp363
S'401DE0210DWC.csv'
p364
aI4320
aI90
aI1
aa(lp365
S'410DN0121DES.csv'
p366
aI4320
aI90
aI1
aa(lp367
S'401DW0060DWS.csv'
p368
aI4320
aI90
aI1
aa(lp369
S'401DE0300DWE.csv'
p370
aI4320
aI90
aI1
aa(lp371
S'410DW0010DNT.csv'
p372
aI4320
aI90
aI1
aa(lp373
S'404DN0100DNR.csv'
p374
aI4320
aI90
aI1
aa(lp375
S'401DE0040DNF.csv'
p376
aI4320
aI90
aI1
aa(lp377
S'QEWDS0080DSR.csv'
p378
aI4320
aI90
aI1
aa(lp379
S'QEWDE0300DWS.csv'
p380
aI4320
aI90
aI1
aa(lp381
S'401DE0460DER.csv'
p382
aI4320
aI90
aI1
aa(lp383
S'400DN0070DNS.csv'
p384
aI4320
aI90
aI1
aa(lp385
S'401DE0430DEE.csv'
p386
aI4320
aI90
aI1
aa(lp387
S'401DE0590DEE.csv'
p388
aI4320
aI90
aI1
aa(lp389
S'410DN0201DES.csv'
p390
aI4320
aI90
aI1
aa(lp391
S'401DE0420DWR.csv'
p392
aI4320
aI90
aI1
aa(lp393
S'QEWDE0170DER.csv'
p394
aI4320
aI90
aI1
aa(lp395
S'QEWDN0030DSS.csv'
p396
aI4320
aI90
aI1
aa(lp397
S'QEWDE0060DWR.csv'
p398
aI4320
aI90
aI1
aa(lp399
S'QEWDE0110DWR.csv'
p400
aI4320
aI90
aI1
aa(lp401
S'410DN0160DWS.csv'
p402
aI4320
aI90
aI1
aa(lp403
S'401DW0030DNR.csv'
p404
aI4320
aI90
aI1
aa(lp405
S'400DN0050DSC.csv'
p406
aI4320
aI90
aI1
aa(lp407
S'QEWDE0120DES.csv'
p408
aI4320
aI90
aI1
aa(lp409
S'404DN0060DSR.csv'
p410
aI4320
aI90
aI1
aa(lp411
S'401DE1020DNR.csv'
p412
aI4320
aI90
aI1
aa(lp413
S'QEWDS0055DER.csv'
p414
aI4320
aI90
aI1
aa(lp415
S'401DE0110DWR.csv'
p416
aI4320
aI90
aI1
aa(lp417
S'401DE0030DER.csv'
p418
aI4320
aI90
aI1
aa(lp419
S'401DE1050DER.csv'
p420
aI4320
aI90
aI1
aa(lp421
S'401DW0030DWE.csv'
p422
aI4320
aI90
aI1
aa(lp423
S'410DW0010DNE.csv'
p424
aI4320
aI90
aI1
aa(lp425
S'401DE1090DWR.csv'
p426
aI4320
aI90
aI1
aa(lp427
S'401DW0090DEC.csv'
p428
aI4320
aI90
aI1
aa(lp429
S'QEWDS0090DNR.csv'
p430
aI4320
aI90
aI1
aa(lp431
S'401DE1030DSR.csv'
p432
aI4320
aI90
aI1
aa(lp433
S'401DE0050DEE.csv'
p434
aI4320
aI90
aI1
aa(lp435
S'401DE0330DWE.csv'
p436
aI4320
aI90
aI1
aa(lp437
S'QEWDE0440DWS.csv'
p438
aI4320
aI90
aI1
aa(lp439
S'410DN0240DES.csv'
p440
aI4320
aI90
aI1
aa(lp441
S'QEWDS0030DWR.csv'
p442
aI4320
aI90
aI1
aa(lp443
S'QEWDE0500DWS.csv'
p444
aI4320
aI90
aI1
aa(lp445
S'QEWDE0250DWS.csv'
p446
aI4320
aI90
aI1
aa(lp447
S'410DW1050DNS.csv'
p448
aI4320
aI90
aI1
aa(lp449
S'401DW0030DWR.csv'
p450
aI4320
aI90
aI1
aa(lp451
S'410DN0230DSR.csv'
p452
aI4320
aI90
aI1
aa(lp453
S'QEWDE0420DES.csv'
p454
aI4320
aI90
aI1
aa(lp455
S'401DW0050DEE.csv'
p456
aI4320
aI90
aI1
aa(lp457
S'401DE0050DER.csv'
p458
aI4320
aI90
aI1
aa(lp459
S'QEWDE0340DNR.csv'
p460
aI4320
aI90
aI1
aa(lp461
S'401DE0390DEE.csv'
p462
aI4320
aI90
aI1
aa(lp463
S'401DE0230DER.csv'
p464
aI4320
aI90
aI1
aa(lp465
S'410DN0140DWS.csv'
p466
aI4320
aI90
aI1
aa(lp467
S'410DN0320DNR.csv'
p468
aI4320
aI90
aI1
aa(lp469
S'QEWDE0090DER.csv'
p470
aI4320
aI90
aI1
aa(lp471
S'QEWDE0210DES.csv'
p472
aI4320
aI90
aI1
aa(lp473
S'401DE0300DWC.csv'
p474
aI4320
aI90
aI1
aa(lp475
S'401DE0380DWC.csv'
p476
aI4320
aI90
aI1
aa(lp477
S'401DE0480DSR.csv'
p478
aI4320
aI90
aI1
aa(lp479
S'QEWDN0040DSR.csv'
p480
aI4320
aI90
aI1
aa(lp481
S'410DN0110DWS.csv'
p482
aI4320
aI90
aI1
aa(lp483
S'QEWDE0061DES.csv'
p484
aI4320
aI90
aI1
aa(lp485
S'401DW0010DWE.csv'
p486
aI4320
aI90
aI1
aa(lp487
S'401DW0250DWE.csv'
p488
aI4320
aI90
aI1
aa(lp489
S'401DW0120DEC.csv'
p490
aI4320
aI90
aI1
aa(lp491
S'QEWDS0120DNS.csv'
p492
aI4320
aI90
aI1
aa(lp493
S'QEWDE0240DES.csv'
p494
aI4320
aI90
aI1
aa(lp495
S'QEWDS0060DNS.csv'
p496
aI4320
aI90
aI1
aa(lp497
S'401DW0270DER.csv'
p498
aI4320
aI90
aI1
aa(lp499
S'401DE0360DEC.csv'
p500
aI4320
aI90
aI1
aa(lp501
S'401DW0070DWS.csv'
p502
aI4320
aI90
aI1
aa(lp503
S'401DE0150DWE.csv'
p504
aI4320
aI90
aI1
aa(lp505
S'401DE0450DWE.csv'
p506
aI4320
aI90
aI1
aa(lp507
S'QEWDS0160DNS.csv'
p508
aI4320
aI90
aI1
aa(lp509
S'410DN0040DSR.csv'
p510
aI4320
aI90
aI1
aa(lp511
S'QEWDE0400DER.csv'
p512
aI4320
aI90
aI1
aa(lp513
S'410DN0200DNR.csv'
p514
aI4320
aI90
aI1
aa(lp515
S'401DW0100DEE.csv'
p516
aI4320
aI90
aI1
aa(lp517
S'401DE0500DWE.csv'
p518
aI4320
aI90
aI1
aa(lp519
S'404DN0091DNH.csv'
p520
aI4320
aI90
aI1
aa(lp521
S'401DE0060DWC.csv'
p522
aI4320
aI90
aI1
aa(lp523
S'401DE0230DWE.csv'
p524
aI4320
aI90
aI1
aa(lp525
S'401DE0090DEE.csv'
p526
aI4320
aI90
aI1
aa(lp527
S'401DE1360DNR.csv'
p528
aI4320
aI90
aI1
aa(lp529
S'QEWDE0140DWR.csv'
p530
aI4320
aI90
aI1
aa(lp531
S'401DE0260DWE.csv'
p532
aI4320
aI90
aI1
aa(lp533
S'401DW0130DWC.csv'
p534
aI4320
aI90
aI1
aa(lp535
S'410DN0010DSS.csv'
p536
aI4320
aI90
aI1
aa(lp537
S'401DE1280DWR.csv'
p538
aI4320
aI90
aI1
aa(lp539
S'401DE0080DWE.csv'
p540
aI4320
aI90
aI1
aa(lp541
S'401DE0080DWT.csv'
p542
aI4320
aI90
aI1
aa(lp543
S'410DW0100DSR.csv'
p544
aI4320
aI90
aI1
aa(lp545
S'QEWDS0095DNR.csv'
p546
aI4320
aI90
aI1
aa(lp547
S'401DE0539DWR.csv'
p548
aI4320
aI90
aI1
aa(lp549
S'400DN0030DWR.csv'
p550
aI4320
aI90
aI1
aa(lp551
S'QEWDE0121DER.csv'
p552
aI4320
aI90
aI1
aa(lp553
S'QEWDE0420DSR.csv'
p554
aI4320
aI90
aI1
aa(lp555
S'410DN0231DES.csv'
p556
aI4320
aI90
aI1
aa(lp557
S'410DN0221DWS.csv'
p558
aI4320
aI90
aI1
aa(lp559
S'410DN0080DWR.csv'
p560
aI4320
aI90
aI1
aa(lp561
S'QEWDE0360DNR.csv'
p562
aI4320
aI90
aI1
aa(lp563
S'401DW0430DNR.csv'
p564
aI4320
aI90
aI1
aa(lp565
S'401DE0380DEE.csv'
p566
aI4320
aI90
aI1
aa(lp567
S'QEWDN0020DWR.csv'
p568
aI4320
aI90
aI1
aa(lp569
S'401DE1450DWR.csv'
p570
aI4320
aI90
aI1
aa(lp571
S'410DN0190DES.csv'
p572
aI4320
aI90
aI1
aa(lp573
S'QEWDS0100DNR.csv'
p574
aI4320
aI90
aI1
aa(lp575
S'401DE0010DES.csv'
p576
aI4320
aI90
aI1
aa(lp577
S'QEWDN0040DNR.csv'
p578
aI4320
aI90
aI1
aa(lp579
S'401DE0260DEC.csv'
p580
aI4320
aI90
aI1
aa(lp581
S'401DE1250DER.csv'
p582
aI4320
aI90
aI1
aa(lp583
S'401DE0420DEC.csv'
p584
aI4320
aI90
aI1
aa(lp585
S'401DE0270DEC.csv'
p586
aI4320
aI90
aI1
aa(lp587
S'QEWDN0030DER.csv'
p588
aI4320
aI90
aI1
aa(lp589
S'410DN0150DWS.csv'
p590
aI4320
aI90
aI1
aa(lp591
S'401DW0260DER.csv'
p592
aI4320
aI90
aI1
aa(lp593
S'410DW0050DSR.csv'
p594
aI4320
aI90
aI1
aa(lp595
S'401DE1340DWR.csv'
p596
aI4320
aI90
aI1
aa(lp597
S'401DW0060DWE.csv'
p598
aI4320
aI90
aI1
aa(lp599
S'401DE0090DEC.csv'
p600
aI4320
aI90
aI1
aa(lp601
S'401DE0010DSA.csv'
p602
aI4320
aI90
aI1
aa(lp603
S'QEWDN0010DNS.csv'
p604
aI4320
aI90
aI1
aa(lp605
S'401DE0490DWC.csv'
p606
aI4320
aI90
aI1
aa(lp607
S'401DE0330DWC.csv'
p608
aI4320
aI90
aI1
aa(lp609
S'QEWDE0410DNR.csv'
p610
aI4320
aI90
aI1
aa(lp611
S'400DN0060DSS.csv'
p612
aI4320
aI90
aI1
aa(lp613
S'401DW0120DER.csv'
p614
aI4320
aI90
aI1
aa(lp615
S'QEWDE0400DES.csv'
p616
aI4320
aI90
aI1
aa(lp617
S'401DW0020DWT.csv'
p618
aI4320
aI90
aI1
aa(lp619
S'QEWDE0231DES.csv'
p620
aI4320
aI90
aI1
aa(lp621
S'400DN0040DSE.csv'
p622
aI4320
aI90
aI1
aa(lp623
S'QEWDN0070DNR.csv'
p624
aI4320
aI90
aI1
aa(lp625
S'410DN0300DWR.csv'
p626
aI4320
aI90
aI1
aa(lp627
S'410DW0040DSR.csv'
p628
aI4320
aI90
aI1
aa(lp629
S'401DW0040DEE.csv'
p630
aI4320
aI90
aI1
aa(lp631
S'QEWDE0131DWS.csv'
p632
aI4320
aI90
aI1
aa(lp633
S'401DE0520DNR.csv'
p634
aI4320
aI90
aI1
aa(lp635
S'QEWDE0220DWS.csv'
p636
aI4320
aI90
aI1
aa(lp637
S'401DE0140DSR.csv'
p638
aI4320
aI90
aI1
aa(lp639
S'401DW0300DER.csv'
p640
aI4320
aI90
aI1
aa(lp641
S'400DN0100DSS.csv'
p642
aI4320
aI90
aI1
aa(lp643
S'401DE0020DNA.csv'
p644
aI4320
aI90
aI1
aa(lp645
S'QEWDS0130DSS.csv'
p646
aI4320
aI90
aI1
aa(lp647
S'404DN0111DSH.csv'
p648
aI4320
aI90
aI1
aa(lp649
S'404DN0090DSS.csv'
p650
aI4320
aI90
aI1
aa(lp651
S'401DE0250DWC.csv'
p652
aI4320
aI90
aI1
aa(lp653
S'QEWDS0110DNS.csv'
p654
aI4320
aI90
aI1
aa(lp655
S'404DN0101DNH.csv'
p656
aI4320
aI90
aI1
aa(lp657
S'401DE0170DEC.csv'
p658
aI4320
aI90
aI1
aa(lp659
S'401DE0030DWS.csv'
p660
aI4320
aI90
aI1
aa(lp661
S'QEWDS0060DSR.csv'
p662
aI4320
aI90
aI1
aa(lp663
S'401DE0200DWC.csv'
p664
aI4320
aI90
aI1
aa(lp665
S'410DN0050DNR.csv'
p666
aI4320
aI90
aI1
aa(lp667
S'401DW0060DEE.csv'
p668
aI4320
aI90
aI1
aa(lp669
S'400DN0100DSR.csv'
p670
aI4320
aI90
aI1
aa(lp671
S'401DE0120DEC.csv'
p672
aI4320
aI90
aI1
aa(lp673
S'QEWDE0280DWS.csv'
p674
aI4320
aI90
aI1
aa(lp675
S'401DE0310DEC.csv'
p676
aI4320
aI90
aI1
aa(lp677
S'401DE0450DNR.csv'
p678
aI4320
aI90
aI1
aa(lp679
S'401DW0070DEC.csv'
p680
aI4320
aI90
aI1
aa(lp681
S'401DE0470DEC.csv'
p682
aI4320
aI90
aI1
aa(lp683
S'410DW0070DSR.csv'
p684
aI4320
aI90
aI1
aa(lp685
S'401DE0570DEE.csv'
p686
aI4320
aI90
aI1
aa(lp687
S'401DW0290DEE.csv'
p688
aI4320
aI90
aI1
aa(lp689
S'401DE0450DWC.csv'
p690
aI4320
aI90
aI1
aa(lp691
S'401DW0390DER.csv'
p692
aI4320
aI90
aI1
aa(lp693
S'QEWDS0140DSS.csv'
p694
aI4320
aI90
aI1
aa(lp695
S'401DE0250DEC.csv'
p696
aI4320
aI90
aI1
aa(lp697
S'401DE0210DET.csv'
p698
aI4320
aI90
aI1
aa(lp699
S'401DE0180DEC.csv'
p700
aI4320
aI90
aI1
aa(lp701
S'401DE0110DET.csv'
p702
aI4320
aI90
aI1
aa(lp703
S'401DW0030DWS.csv'
p704
aI4320
aI90
aI1
aa(lp705
S'401DE0530DSR.csv'
p706
aI4320
aI90
aI1
aa(lp707
S'QEWDE0061DWS.csv'
p708
aI4320
aI90
aI1
aa(lp709
S'QEWDN0030DSR.csv'
p710
aI4320
aI90
aI1
aa(lp711
S'401DE0800DER.csv'
p712
aI4320
aI90
aI1
aa(lp713
S'410DN0170DES.csv'
p714
aI4320
aI90
aI1
aa(lp715
S'401DE1440DSR.csv'
p716
aI4320
aI90
aI1
aa(lp717
S'401DE1270DER.csv'
p718
aI4320
aI90
aI1
aa(lp719
S'401DW0410DSR.csv'
p720
aI4320
aI90
aI1
aa(lp721
S'410DW0060DSR.csv'
p722
aI4320
aI90
aI1
aa(lp723
S'QEWDE0040DER.csv'
p724
aI4320
aI90
aI1
aa(lp725
S'401DW0040DNR.csv'
p726
aI4320
aI90
aI1
aa(lp727
S'QEWDE0100DWR.csv'
p728
aI4320
aI90
aI1
aa(lp729
S'401DE0020DSR.csv'
p730
aI4320
aI90
aI1
aa(lp731
S'QEWDE0330DNR.csv'
p732
aI4320
aI90
aI1
aa(lp733
S'QEWDE0180DES.csv'
p734
aI4320
aI90
aI1
aa(lp735
S'QEWDE0070DER.csv'
p736
aI4320
aI90
aI1
aa(lp737
S'401DE0370DWE.csv'
p738
aI4320
aI90
aI1
aa(lp739
S'401DW0160DEC.csv'
p740
aI4320
aI90
aI1
aa(lp741
S'QEWDS0160DSS.csv'
p742
aI4320
aI90
aI1
aa(lp743
S'401DW0200DWC.csv'
p744
aI4320
aI90
aI1
aa(lp745
S'QEWDE0390DWS.csv'
p746
aI4320
aI90
aI1
aa(lp747
S'QEWDE0171DES.csv'
p748
aI4320
aI90
aI1
aa(lp749
S'401DE0520DWR.csv'
p750
aI4320
aI90
aI1
aa(lp751
S'QEWDE0080DWS.csv'
p752
aI4320
aI90
aI1
aa(lp753
S'401DE0140DWE.csv'
p754
aI4320
aI90
aI1
aa(lp755
S'QEWDE0470DWS.csv'
p756
aI4320
aI90
aI1
aa(lp757
S'401DE0290DEE.csv'
p758
aI4320
aI90
aI1
aa(lp759
S'QEWDN0130DSR.csv'
p760
aI4320
aI90
aI1
aa(lp761
S'401DE0470DWR.csv'
p762
aI4320
aI90
aI1
aa(lp763
S'QEWDE0170DWR.csv'
p764
aI4320
aI90
aI1
aa(lp765
S'401DE0440DEC.csv'
p766
aI4320
aI90
aI1
aa(lp767
S'401DE0200DWE.csv'
p768
aI4320
aI90
aI1
aa(lp769
S'401DE1070DWR.csv'
p770
aI4320
aI90
aI1
aa(lp771
S'410DN0080DSS.csv'
p772
aI4320
aI90
aI1
aa(lp773
S'QEWDE0171DWS.csv'
p774
aI4320
aI90
aI1
aa(lp775
S'401DW0080DWS.csv'
p776
aI4320
aI90
aI1
aa(lp777
S'404DN0080DNS.csv'
p778
aI4320
aI90
aI1
aa(lp779
S'QEWDS0065DWR.csv'
p780
aI4320
aI90
aI1
aa(lp781
S'400DN0030DSS.csv'
p782
aI4320
aI90
aI1
aa(lp783
S'410DW0120DNR.csv'
p784
aI4320
aI90
aI1
aa(lp785
S'QEWDN0010DNR.csv'
p786
aI4320
aI90
aI1
aa(lp787
S'410DN0121DWS.csv'
p788
aI4320
aI90
aI1
aa(lp789
S'401DW0090DWE.csv'
p790
aI4320
aI90
aI1
aa(lp791
S'410DN0220DSR.csv'
p792
aI4320
aI90
aI1
aa(lp793
S'401DW0440DWR.csv'
p794
aI4320
aI90
aI1
aa(lp795
S'QEWDE0410DER.csv'
p796
aI4320
aI90
aI1
aa(lp797
S'401DE0570DNR.csv'
p798
aI4320
aI90
aI1
aa(lp799
S'QEWDE0130DWS.csv'
p800
aI4320
aI90
aI1
aa(lp801
S'401DW0190DER.csv'
p802
aI4320
aI90
aI1
aa(lp803
S'QEWDE0470DNR.csv'
p804
aI4320
aI90
aI1
aa(lp805
S'401DE0940DER.csv'
p806
aI4320
aI90
aI1
aa(lp807
S'401DE0850DSR.csv'
p808
aI4320
aI90
aI1
aa(lp809
S'QEWDE0280DWR.csv'
p810
aI4320
aI90
aI1
aa(lp811
S'401DE0010DWS.csv'
p812
aI4320
aI90
aI1
aa(lp813
S'401DE0140DEC.csv'
p814
aI4320
aI90
aI1
aa(lp815
S'401DE0250DWT.csv'
p816
aI4320
aI90
aI1
aa(lp817
S'QEWDE0090DWR.csv'
p818
aI4320
aI90
aI1
aa(lp819
S'401DE0340DER.csv'
p820
aI4320
aI90
aI1
aa(lp821
S'410DN0170DWS.csv'
p822
aI4320
aI90
aI1
aa(lp823
S'401DE0220DEE.csv'
p824
aI4320
aI90
aI1
aa(lp825
S'410DN0190DER.csv'
p826
aI4320
aI90
aI1
aa(lp827
S'401DW0230DEE.csv'
p828
aI4320
aI90
aI1
aa(lp829
S'QEWDE0540DES.csv'
p830
aI4320
aI90
aI1
aa(lp831
S'410DN0070DNR.csv'
p832
aI4320
aI90
aI1
aa(lp833
S'404DN0070DNR.csv'
p834
aI4320
aI90
aI1
aa(lp835
S'QEWDE0450DNR.csv'
p836
aI4320
aI90
aI1
aa(lp837
S'QEWDE0060DER.csv'
p838
aI4320
aI90
aI1
aa(lp839
S'403DN0010DER.csv'
p840
aI4320
aI90
aI1
aa(lp841
S'QEWDE0430DWS.csv'
p842
aI4320
aI90
aI1
aa(lp843
S'QEWDN0090DSR.csv'
p844
aI4320
aI90
aI1
aa(lp845
S'401DE0700DNR.csv'
p846
aI4320
aI90
aI1
aa(lp847
S'401DW0030DEE.csv'
p848
aI4320
aI90
aI1
aa(lp849
S'401DE0170DWC.csv'
p850
aI4320
aI90
aI1
aa(lp851
S'QEWDE0010DWS.csv'
p852
aI4320
aI90
aI1
aa(lp853
S'401DW0280DWE.csv'
p854
aI4320
aI90
aI1
aa(lp855
S'401DE0280DEC.csv'
p856
aI4320
aI90
aI1
aa(lp857
S'401DE0200DWT.csv'
p858
aI4320
aI90
aI1
aa(lp859
S'QEWDS0050DWR.csv'
p860
aI4320
aI90
aI1
aa(lp861
S'QEWDE0280DES.csv'
p862
aI4320
aI90
aI1
aa(lp863
S'401DW0060DSF.csv'
p864
aI4320
aI90
aI1
aa(lp865
S'400DN0020DSR.csv'
p866
aI4320
aI90
aI1
aa(lp867
S'401DE0040DWE.csv'
p868
aI4320
aI90
aI1
aa(lp869
S'401DE0210DWE.csv'
p870
aI4320
aI90
aI1
aa(lp871
S'410DN0171DWS.csv'
p872
aI4320
aI90
aI1
aa(lp873
S'401DE0570DWE.csv'
p874
aI4320
aI90
aI1
aa(lp875
S'401DE0030DSF.csv'
p876
aI4320
aI90
aI1
aa(lp877
S'QEWDE0070DES.csv'
p878
aI4320
aI90
aI1
aa(lp879
S'QEWDE0125DWR.csv'
p880
aI4320
aI90
aI1
aa(lp881
S'401DE1200DWR.csv'
p882
aI4320
aI90
aI1
aa(lp883
S'401DW0150DWC.csv'
p884
aI4320
aI90
aI1
aa(lp885
S'401DE0090DWE.csv'
p886
aI4320
aI90
aI1
aa(lp887
S'QEWDE0190DWS.csv'
p888
aI4320
aI90
aI1
aa(lp889
S'QEWDS0045DSR.csv'
p890
aI4320
aI90
aI1
aa(lp891
S'410DN0010DNS.csv'
p892
aI4320
aI90
aI1
aa(lp893
S'401DE0610DNR.csv'
p894
aI4320
aI90
aI1
aa(lp895
S'401DE0750DER.csv'
p896
aI4320
aI90
aI1
aa(lp897
S'401DE0280DWC.csv'
p898
aI4320
aI90
aI1
aa(lp899
S'400DN0040DNE.csv'
p900
aI4320
aI90
aI1
aa(lp901
S'401DE0660DSR.csv'
p902
aI4320
aI90
aI1
aa(lp903
S'410DN0040DSS.csv'
p904
aI4320
aI90
aI1
aa(lp905
S'404DN0051DSH.csv'
p906
aI4320
aI90
aI1
aa(lp907
S'401DE1010DER.csv'
p908
aI4320
aI90
aI1
aa(lp909
S'QEWDE0211DWS.csv'
p910
aI4320
aI90
aI1
aa(lp911
S'401DE0820DSR.csv'
p912
aI4320
aI90
aI1
aa(lp913
S'400DN0050DSS.csv'
p914
aI4320
aI90
aI1
aa(lp915
S'QEWDE0300DSR.csv'
p916
aI4320
aI90
aI1
aa(lp917
S'410DW0030DNE.csv'
p918
aI4320
aI90
aI1
aa(lp919
S'QEWDE0220DES.csv'
p920
aI4320
aI90
aI1
aa(lp921
S'QEWDE0041DES.csv'
p922
aI4320
aI90
aI1
aa(lp923
S'401DE0430DEC.csv'
p924
aI4320
aI90
aI1
aa(lp925
S'401DE0550DER.csv'
p926
aI4320
aI90
aI1
aa(lp927
S'QEWDE0460DWS.csv'
p928
aI4320
aI90
aI1
aa(lp929
S'401DW0340DSR.csv'
p930
aI4320
aI90
aI1
aa(lp931
S'401DE0360DNR.csv'
p932
aI4320
aI90
aI1
aa(lp933
S'401DE0330DEC.csv'
p934
aI4320
aI90
aI1
aa(lp935
S'401DE0530DWR.csv'
p936
aI4320
aI90
aI1
aa(lp937
S'401DE0200DEC.csv'
p938
aI4320
aI90
aI1
aa(lp939
S'QEWDE0270DWS.csv'
p940
aI4320
aI90
aI1
aa(lp941
S'401DE0290DEC.csv'
p942
aI4320
aI90
aI1
aa(lp943
S'401DE0110DWE.csv'
p944
aI4320
aI90
aI1
aa(lp945
S'401DE0120DWE.csv'
p946
aI4320
aI90
aI1
aa(lp947
S'401DW0280DEE.csv'
p948
aI4320
aI90
aI1
aa(lp949
S'410DN0070DNS.csv'
p950
aI4320
aI90
aI1
aa(lp951
S'401DE0380DEC.csv'
p952
aI4320
aI90
aI1
aa(lp953
S'401DE0050DET.csv'
p954
aI4320
aI90
aI1
aa(lp955
S'QEWDE0370DSR.csv'
p956
aI4320
aI90
aI1
aa(lp957
S'401DE0240DER.csv'
p958
aI4320
aI90
aI1
aa(lp959
S'410DW0020DSC.csv'
p960
aI4320
aI90
aI1
aa(lp961
S'401DE0140DEE.csv'
p962
aI4320
aI90
aI1
aa(lp963
S'410DN0191DES.csv'
p964
aI4320
aI90
aI1
aa(lp965
S'QEWDE0141DWS.csv'
p966
aI4320
aI90
aI1
aa(lp967
S'401DE0920DSR.csv'
p968
aI4320
aI90
aI1
aa(lp969
S'401DW0070DNR.csv'
p970
aI4320
aI90
aI1
aa(lp971
S'400DN0090DNS.csv'
p972
aI4320
aI90
aI1
aa(lp973
S'QEWDE0340DSR.csv'
p974
aI4320
aI90
aI1
aa(lp975
S'QEWDE0230DES.csv'
p976
aI4320
aI90
aI1
aa(lp977
S'401DE0450DEC.csv'
p978
aI4320
aI90
aI1
aa(lp979
S'410DW0010DST.csv'
p980
aI4320
aI90
aI1
aa(lp981
S'401DE0090DWS.csv'
p982
aI4320
aI90
aI1
aa(lp983
S'QEWDE0131DES.csv'
p984
aI4320
aI90
aI1
aa(lp985
S'410DN0180DES.csv'
p986
aI4320
aI90
aI1
aa(lp987
S'401DE0070DWE.csv'
p988
aI4320
aI90
aI1
aa(lp989
S'401DE0060DES.csv'
p990
aI4320
aI90
aI1
aa(lp991
S'410DN0111DWS.csv'
p992
aI4320
aI90
aI1
aa(lp993
S'QEWDE0530DWS.csv'
p994
aI4320
aI90
aI1
aa(lp995
S'QEWDS0040DNR.csv'
p996
aI4320
aI90
aI1
aa(lp997
S'401DE0560DEE.csv'
p998
aI4320
aI90
aI1
aa(lp999
S'QEWDE0390DES.csv'
p1000
aI4320
aI90
aI1
aa(lp1001
S'404DN0010DSS.csv'
p1002
aI4320
aI90
aI1
aa(lp1003
S'401DE0090DWR.csv'
p1004
aI4320
aI90
aI1
aa(lp1005
S'410DW0010DSE.csv'
p1006
aI4320
aI90
aI1
aa(lp1007
S'401DE0650DER.csv'
p1008
aI4320
aI90
aI1
aa(lp1009
S'400DN0040DSC.csv'
p1010
aI4320
aI90
aI1
aa(lp1011
S'401DE1300DWR.csv'
p1012
aI4320
aI90
aI1
aa(lp1013
S'401DE0810DNR.csv'
p1014
aI4320
aI90
aI1
aa(lp1015
S'401DW0310DSR.csv'
p1016
aI4320
aI90
aI1
aa(lp1017
S'401DE0220DEC.csv'
p1018
aI4320
aI90
aI1
aa(lp1019
S'QEWDN0100DER.csv'
p1020
aI4320
aI90
aI1
aa(lp1021
S'401DE0120DWC.csv'
p1022
aI4320
aI90
aI1
aa(lp1023
S'410DN0130DES.csv'
p1024
aI4320
aI90
aI1
aa(lp1025
S'400DN0030DNC.csv'
p1026
aI4320
aI90
aI1
aa(lp1027
S'QEWDN0010DSS.csv'
p1028
aI4320
aI90
aI1
aa(lp1029
S'401DE0440DWC.csv'
p1030
aI4320
aI90
aI1
aa(lp1031
S'401DE0290DER.csv'
p1032
aI4320
aI90
aI1
aa(lp1033
S'401DE0230DWC.csv'
p1034
aI4320
aI90
aI1
aa(lp1035
S'QEWDE0200DWS.csv'
p1036
aI4320
aI90
aI1
aa(lp1037
S'QEWDE0110DES.csv'
p1038
aI4320
aI90
aI1
aa(lp1039
S'400DN0080DER.csv'
p1040
aI4320
aI90
aI1
aa(lp1041
S'QEWDE0400DWS.csv'
p1042
aI4320
aI90
aI1
aa(lp1043
S'401DE0020DWC.csv'
p1044
aI4320
aI90
aI1
aa(lp1045
S'410DW0020DNR.csv'
p1046
aI4320
aI90
aI1
aa(lp1047
S'410DN0180DWR.csv'
p1048
aI4320
aI90
aI1
aa(lp1049
S'401DE1240DWR.csv'
p1050
aI4320
aI90
aI1
aa(lp1051
S'QEWDE0510DNR.csv'
p1052
aI4320
aI90
aI1
aa(lp1053
S'410DN0241DES.csv'
p1054
aI4320
aI90
aI1
aa(lp1055
S'400DN0040DNC.csv'
p1056
aI4320
aI90
aI1
aa(lp1057
S'401DE0440DWE.csv'
p1058
aI4320
aI90
aI1
aa(lp1059
S'QEWDS0025DNR.csv'
p1060
aI4320
aI90
aI1
aa(lp1061
S'QEWDN0060DNS.csv'
p1062
aI4320
aI90
aI1
aa(lp1063
S'401DE0100DEE.csv'
p1064
aI4320
aI90
aI1
aa(lp1065
S'401DE1390DER.csv'
p1066
aI4320
aI90
aI1
aa(lp1067
S'QEWDS0050DSR.csv'
p1068
aI4320
aI90
aI1
aa(lp1069
S'401DW0100DWS.csv'
p1070
aI4320
aI90
aI1
aa(lp1071
S'401DE0150DWC.csv'
p1072
aI4320
aI90
aI1
aa(lp1073
S'401DE0450DEE.csv'
p1074
aI4320
aI90
aI1
aa(lp1075
S'401DE0540DEE.csv'
p1076
aI4320
aI90
aI1
aa(lp1077
S'401DE0090DET.csv'
p1078
aI4320
aI90
aI1
aa(lp1079
S'401DW0270DWE.csv'
p1080
aI4320
aI90
aI1
aa(lp1081
S'401DW0340DER.csv'
p1082
aI4320
aI90
aI1
aa(lp1083
S'401DE0270DNR.csv'
p1084
aI4320
aI90
aI1
aa(lp1085
S'401DE1420DWR.csv'
p1086
aI4320
aI90
aI1
aa(lp1087
S'QEWDE0181DWS.csv'
p1088
aI4320
aI90
aI1
aa(lp1089
S'401DE0980DSR.csv'
p1090
aI4320
aI90
aI1
aa(lp1091
S'410DN0260DER.csv'
p1092
aI4320
aI90
aI1
aa(lp1093
S'410DW0070DNR.csv'
p1094
aI4320
aI90
aI1
aa(lp1095
S'401DE0190DWC.csv'
p1096
aI4320
aI90
aI1
aa(lp1097
S'401DE0520DWE.csv'
p1098
aI4320
aI90
aI1
aa(lp1099
S'401DE0550DWE.csv'
p1100
aI4320
aI90
aI1
aa(lp1101
S'401DE0540DWE.csv'
p1102
aI4320
aI90
aI1
aa(lp1103
S'QEWDS0040DSS.csv'
p1104
aI4320
aI90
aI1
aa(lp1105
S'QEWDE0290DES.csv'
p1106
aI4320
aI90
aI1
aa(lp1107
S'QEWDS0010DNS.csv'
p1108
aI4320
aI90
aI1
aa(lp1109
S'QEWDE0190DWR.csv'
p1110
aI4320
aI90
aI1
aa(lp1111
S'401DE0080DES.csv'
p1112
aI4320
aI90
aI1
aa(lp1113
S'401DE0310DSR.csv'
p1114
aI4320
aI90
aI1
aa(lp1115
S'401DE0210DWR.csv'
p1116
aI4320
aI90
aI1
aa(lp1117
S'410DN0040DNS.csv'
p1118
aI4320
aI90
aI1
aa(lp1119
S'401DW0020DWE.csv'
p1120
aI4320
aI90
aI1
aa(lp1121
S'QEWDS0047DNR.csv'
p1122
aI4320
aI90
aI1
aa(lp1123
S'410DN0020DSS.csv'
p1124
aI4320
aI90
aI1
aa(lp1125
S'401DE0010DEE.csv'
p1126
aI4320
aI90
aI1
aa(lp1127
S'QEWDE0210DWS.csv'
p1128
aI4320
aI90
aI1
aa(lp1129
S'QEWDE0520DWR.csv'
p1130
aI4320
aI90
aI1
aa(lp1131
S'401DE0690DWR.csv'
p1132
aI4320
aI90
aI1
aa(lp1133
S'401DE0527DSR.csv'
p1134
aI4320
aI90
aI1
aa(lp1135
S'QEWDE0260DWS.csv'
p1136
aI4320
aI90
aI1
aa(lp1137
S'QEWDE0320DWS.csv'
p1138
aI4320
aI90
aI1
aa(lp1139
S'401DE0580DEC.csv'
p1140
aI4320
aI90
aI1
aa(lp1141
S'401DE1460DNR.csv'
p1142
aI4320
aI90
aI1
aa(lp1143
S'401DW0200DSR.csv'
p1144
aI4320
aI90
aI1
aa(lp1145
S'401DE0525DSR.csv'
p1146
aI4320
aI90
aI1
aa(lp1147
S'401DE0050DEC.csv'
p1148
aI4320
aI90
aI1
aa(lp1149
S'QEWDE0390DER.csv'
p1150
aI4320
aI90
aI1
aa(lp1151
S'401DE1060DER.csv'
p1152
aI4320
aI90
aI1
aa(lp1153
S'400DN0070DNR.csv'
p1154
aI4320
aI90
aI1
aa(lp1155
S'401DE0910DER.csv'
p1156
aI4320
aI90
aI1
aa(lp1157
S'QEWDE0050DER.csv'
p1158
aI4320
aI90
aI1
aa(lp1159
S'400DN0060DSC.csv'
p1160
aI4320
aI90
aI1
aa(lp1161
S'401DE0840DWR.csv'
p1162
aI4320
aI90
aI1
aa(lp1163
S'QEWDE0081DWS.csv'
p1164
aI4320
aI90
aI1
aa(lp1165
S'401DW0420DWR.csv'
p1166
aI4320
aI90
aI1
aa(lp1167
S'404DN0010DNE.csv'
p1168
aI4320
aI90
aI1
aa(lp1169
S'404DN0010DNC.csv'
p1170
aI4320
aI90
aI1
aa(lp1171
S'401DW0290DWE.csv'
p1172
aI4320
aI90
aI1
aa(lp1173
S'400DN0020DSC.csv'
p1174
aI4320
aI90
aI1
aa(lp1175
S'QEWDE0151DES.csv'
p1176
aI4320
aI90
aI1
aa(lp1177
S'QEWDE0180DER.csv'
p1178
aI4320
aI90
aI1
aa(lp1179
S'401DW0040DSR.csv'
p1180
aI4320
aI90
aI1
aa(lp1181
S'401DE0530DEE.csv'
p1182
aI4320
aI90
aI1
aa(lp1183
S'QEWDE0225DWR.csv'
p1184
aI4320
aI90
aI1
aa(lp1185
S'401DW0020DEE.csv'
p1186
aI4320
aI90
aI1
aa(lp1187
S'410DW0010DWR.csv'
p1188
aI4320
aI90
aI1
aa(lp1189
S'401DW0300DWE.csv'
p1190
aI4320
aI90
aI1
aa(lp1191
S'400DN0040DER.csv'
p1192
aI4320
aI90
aI1
aa(lp1193
S'401DE0490DER.csv'
p1194
aI4320
aI90
aI1
aa(lp1195
S'401DW0010DER.csv'
p1196
aI4320
aI90
aI1
aa(lp1197
S'401DW0050DER.csv'
p1198
aI4320
aI90
aI1
aa(lp1199
S'401DE0120DWT.csv'
p1200
aI4320
aI90
aI1
aa(lp1201
S'401DW0150DEC.csv'
p1202
aI4320
aI90
aI1
aa(lp1203
S'QEWDS0090DSS.csv'
p1204
aI4320
aI90
aI1
aa(lp1205
S'401DE0480DWC.csv'
p1206
aI4320
aI90
aI1
aa(lp1207
S'401DE0080DWR.csv'
p1208
aI4320
aI90
aI1
aa(lp1209
S'QEWDN0040DNS.csv'
p1210
aI4320
aI90
aI1
aa(lp1211
S'410DW0010DSR.csv'
p1212
aI4320
aI90
aI1
aa(lp1213
S'401DE0410DWC.csv'
p1214
aI4320
aI90
aI1
aa(lp1215
S'401DE0300DEE.csv'
p1216
aI4320
aI90
aI1
aa(lp1217
S'401DE0180DEE.csv'
p1218
aI4320
aI90
aI1
aa(lp1219
S'QEWDE0140DER.csv'
p1220
aI4320
aI90
aI1
aa(lp1221
S'401DW0010DWC.csv'
p1222
aI4320
aI90
aI1
aa(lp1223
S'401DW0200DEC.csv'
p1224
aI4320
aI90
aI1
aa(lp1225
S'401DE0160DEE.csv'
p1226
aI4320
aI90
aI1
aa(lp1227
S'401DW0460DER.csv'
p1228
aI4320
aI90
aI1
aa(lp1229
S'404DN0110DWR.csv'
p1230
aI4320
aI90
aI1
aa(lp1231
S'QEWDS0030DNS.csv'
p1232
aI4320
aI90
aI1
aa(lp1233
S'401DE0580DEE.csv'
p1234
aI4320
aI90
aI1
aa(lp1235
S'401DW0090DEE.csv'
p1236
aI4320
aI90
aI1
aa(lp1237
S'404DN0081DNH.csv'
p1238
aI4320
aI90
aI1
aa(lp1239
S'401DE0320DER.csv'
p1240
aI4320
aI90
aI1
aa(lp1241
S'QEWDE0470DES.csv'
p1242
aI4320
aI90
aI1
aa(lp1243
S'401DW0110DWC.csv'
p1244
aI4320
aI90
aI1
aa(lp1245
S'QEWDE0020DWS.csv'
p1246
aI4320
aI90
aI1
aa(lp1247
S'400DN0020DNR.csv'
p1248
aI4320
aI90
aI1
aa(lp1249
S'400DN0040DNS.csv'
p1250
aI4320
aI90
aI1
aa(lp1251
S'410DN0150DES.csv'
p1252
aI4320
aI90
aI1
aa(lp1253
S'401DE0340DEE.csv'
p1254
aI4320
aI90
aI1
aa(lp1255
S'401DW0300DEE.csv'
p1256
aI4320
aI90
aI1
aa(lp1257
S'410DN0141DES.csv'
p1258
aI4320
aI90
aI1
aa(lp1259
S'QEWDE0400DNR.csv'
p1260
aI4320
aI90
aI1
aa(lp1261
S'401DE0460DEC.csv'
p1262
aI4320
aI90
aI1
aa(lp1263
S'401DW0080DEC.csv'
p1264
aI4320
aI90
aI1
aa(lp1265
S'401DW0090DSR.csv'
p1266
aI4320
aI90
aI1
aa(lp1267
S'401DE1140DNR.csv'
p1268
aI4320
aI90
aI1
aa(lp1269
S'401DE0550DEE.csv'
p1270
aI4320
aI90
aI1
aa(lp1271
S'401DE0250DER.csv'
p1272
aI4320
aI90
aI1
aa(lp1273
S'401DE0670DWR.csv'
p1274
aI4320
aI90
aI1
aa(lp1275
S'401DE0490DEE.csv'
p1276
aI4320
aI90
aI1
aa(lp1277
S'QEWDS0010DSR.csv'
p1278
aI4320
aI90
aI1
aa(lp1279
S'QEWDN0020DSS.csv'
p1280
aI4320
aI90
aI1
aa(lp1281
S'404DN0080DNR.csv'
p1282
aI4320
aI90
aI1
aa(lp1283
S'401DE0320DWC.csv'
p1284
aI4320
aI90
aI1
aa(lp1285
S'410DW0080DSR.csv'
p1286
aI4320
aI90
aI1
aa(lp1287
S'QEWDE0091DWS.csv'
p1288
aI4320
aI90
aI1
aa(lp1289
S'401DE0040DES.csv'
p1290
aI4320
aI90
aI1
aa(lp1291
S'401DE0060DNR.csv'
p1292
aI4320
aI90
aI1
aa(lp1293
S'QEWDS0100DSS.csv'
p1294
aI4320
aI90
aI1
aa(lp1295
S'401DW0030DWT.csv'
p1296
aI4320
aI90
aI1
aa(lp1297
S'401DW0010DEC.csv'
p1298
aI4320
aI90
aI1
aa(lp1299
S'QEWDE0150DWS.csv'
p1300
aI4320
aI90
aI1
aa(lp1301
S'410DW0100DER.csv'
p1302
aI4320
aI90
aI1
aa(lp1303
S'401DE0090DWC.csv'
p1304
aI4320
aI90
aI1
aa(lp1305
S'QEWDE0100DWS.csv'
p1306
aI4320
aI90
aI1
aa(lp1307
S'QEWDE0090DES.csv'
p1308
aI4320
aI90
aI1
aa(lp1309
S'401DE0514DWR.csv'
p1310
aI4320
aI90
aI1
aa(lp1311
S'401DW0350DNR.csv'
p1312
aI4320
aI90
aI1
aa(lp1313
S'401DE0530DEC.csv'
p1314
aI4320
aI90
aI1
aa(lp1315
S'410DN0310DER.csv'
p1316
aI4320
aI90
aI1
aa(lp1317
S'401DW0080DWE.csv'
p1318
aI4320
aI90
aI1
aa(lp1319
S'QEWDE0081DES.csv'
p1320
aI4320
aI90
aI1
aa(lp1321
S'401DE0575DNR.csv'
p1322
aI4320
aI90
aI1
aa(lp1323
S'401DE1260DWR.csv'
p1324
aI4320
aI90
aI1
aa(lp1325
S'401DE1345DWR.csv'
p1326
aI4320
aI90
aI1
aa(lp1327
S'QEWDE0420DWS.csv'
p1328
aI4320
aI90
aI1
aa(lp1329
S'401DW0170DWC.csv'
p1330
aI4320
aI90
aI1
aa(lp1331
S'QEWDE0480DNR.csv'
p1332
aI4320
aI90
aI1
aa(lp1333
S'401DE0380DWE.csv'
p1334
aI4320
aI90
aI1
aa(lp1335
S'QEWDE0250DES.csv'
p1336
aI4320
aI90
aI1
aa(lp1337
S'410DN0130DER.csv'
p1338
aI4320
aI90
aI1
aa(lp1339
S'401DE0190DWE.csv'
p1340
aI4320
aI90
aI1
aa(lp1341
S'401DE0050DWC.csv'
p1342
aI4320
aI90
aI1
aa(lp1343
S'QEWDE0140DWS.csv'
p1344
aI4320
aI90
aI1
aa(lp1345
S'401DE0230DEC.csv'
p1346
aI4320
aI90
aI1
aa(lp1347
S'QEWDE0220DWR.csv'
p1348
aI4320
aI90
aI1
aa(lp1349
S'QEWDE0260DES.csv'
p1350
aI4320
aI90
aI1
aa(lp1351
S'401DE0120DWR.csv'
p1352
aI4320
aI90
aI1
aa(lp1353
S'401DE0240DEE.csv'
p1354
aI4320
aI90
aI1
aa(lp1355
S'401DE0260DNR.csv'
p1356
aI4320
aI90
aI1
aa(lp1357
S'410DN0200DWS.csv'
p1358
aI4320
aI90
aI1
aa(lp1359
S'401DW0220DSR.csv'
p1360
aI4320
aI90
aI1
aa(lp1361
S'QEWDE0230DWR.csv'
p1362
aI4320
aI90
aI1
aa(lp1363
S'QEWDE0270DES.csv'
p1364
aI4320
aI90
aI1
aa(lp1365
S'410DN0091DES.csv'
p1366
aI4320
aI90
aI1
aa(lp1367
S'401DE0340DEC.csv'
p1368
aI4320
aI90
aI1
aa(lp1369
S'404DN0060DNS.csv'
p1370
aI4320
aI90
aI1
aa(lp1371
S'401DW0180DEC.csv'
p1372
aI4320
aI90
aI1
aa(lp1373
S'QEWDE0510DWS.csv'
p1374
aI4320
aI90
aI1
aa(lp1375
S'400DN0030DNS.csv'
p1376
aI4320
aI90
aI1
aa(lp1377
S'QEWDE0030DES.csv'
p1378
aI4320
aI90
aI1
aa(lp1379
S'401DE0530DWE.csv'
p1380
aI4320
aI90
aI1
aa(lp1381
S'401DE0170DET.csv'
p1382
aI4320
aI90
aI1
aa(lp1383
S'401DW0020DSF.csv'
p1384
aI4320
aI90
aI1
aa(lp1385
S'401DE0250DEE.csv'
p1386
aI4320
aI90
aI1
aa(lp1387
S'400DN0110DNS.csv'
p1388
aI4320
aI90
aI1
aa(lp1389
S'QEWDE0141DES.csv'
p1390
aI4320
aI90
aI1
aa(lp1391
S'401DE0100DWR.csv'
p1392
aI4320
aI90
aI1
aa(lp1393
S'401DE0300DEC.csv'
p1394
aI4320
aI90
aI1
aa(lp1395
S'401DE0420DEE.csv'
p1396
aI4320
aI90
aI1
aa(lp1397
S'QEWDE0060DES.csv'
p1398
aI4320
aI90
aI1
aa(lp1399
S'400DN0010DSC.csv'
p1400
aI4320
aI90
aI1
aa(lp1401
S'401DE0150DER.csv'
p1402
aI4320
aI90
aI1
aa(lp1403
S'QEWDE0380DWR.csv'
p1404
aI4320
aI90
aI1
aa(lp1405
S'401DE0310DWE.csv'
p1406
aI4320
aI90
aI1
aa(lp1407
S'401DW0370DSR.csv'
p1408
aI4320
aI90
aI1
aa(lp1409
S'401DE0390DWE.csv'
p1410
aI4320
aI90
aI1
aa(lp1411
S'401DW0130DEC.csv'
p1412
aI4320
aI90
aI1
aa(lp1413
S'401DE0180DWT.csv'
p1414
aI4320
aI90
aI1
aa(lp1415
S'401DE0060DEC.csv'
p1416
aI4320
aI90
aI1
aa(lp1417
S'401DE0160DSR.csv'
p1418
aI4320
aI90
aI1
aa(lp1419
S'401DW0250DEE.csv'
p1420
aI4320
aI90
aI1
aa(lp1421
S'400DN0030DNE.csv'
p1422
aI4320
aI90
aI1
aa(lp1423
S'401DW0290DWR.csv'
p1424
aI4320
aI90
aI1
aa(lp1425
S'401DW0030DES.csv'
p1426
aI4320
aI90
aI1
aa(lp1427
S'401DW0210DSR.csv'
p1428
aI4320
aI90
aI1
aa(lp1429
S'401DE0500DEC.csv'
p1430
aI4320
aI90
aI1
aa(lp1431
S'QEWDE0310DWS.csv'
p1432
aI4320
aI90
aI1
aa(lp1433
S'QEWDE0150DES.csv'
p1434
aI4320
aI90
aI1
aa(lp1435
S'401DE0520DEE.csv'
p1436
aI4320
aI90
aI1
aa(lp1437
S'QEWDE0480DWS.csv'
p1438
aI4320
aI90
aI1
aa(lp1439
S'401DE0100DWE.csv'
p1440
aI4320
aI90
aI1
aa(lp1441
S'400DN0110DSS.csv'
p1442
aI4320
aI90
aI1
aa(lp1443
S'401DW0080DES.csv'
p1444
aI4320
aI90
aI1
aa(lp1445
S'401DE0930DWR.csv'
p1446
aI4320
aI90
aI1
aa(lp1447
S'401DE0460DWC.csv'
p1448
aI4320
aI90
aI1
aa(lp1449
S'404DN0010DNS.csv'
p1450
aI4320
aI90
aI1
aa(lp1451
S'QEWDE0430DES.csv'
p1452
aI4320
aI90
aI1
aa(lp1453
S'410DN0191DWS.csv'
p1454
aI4320
aI90
aI1
aa(lp1455
S'401DE0960DER.csv'
p1456
aI4320
aI90
aI1
aa(lp1457
S'401DE0330DWR.csv'
p1458
aI4320
aI90
aI1
aa(lp1459
S'404DN0040DSS.csv'
p1460
aI4320
aI90
aI1
aa(lp1461
S'QEWDE0490DES.csv'
p1462
aI4320
aI90
aI1
aa(lp1463
S'410DW0020DSE.csv'
p1464
aI4320
aI90
aI1
aa(lp1465
S'QEWDE0300DNR.csv'
p1466
aI4320
aI90
aI1
aa(lp1467
S'410DN0090DES.csv'
p1468
aI4320
aI90
aI1
aa(lp1469
S'401DE0030DWC.csv'
p1470
aI4320
aI90
aI1
aa(lp1471
S'401DE0230DWT.csv'
p1472
aI4320
aI90
aI1
aa(lp1473
S'404DN0011DNH.csv'
p1474
aI4320
aI90
aI1
aa(lp1475
S'404DN0010DER.csv'
p1476
aI4320
aI90
aI1
aa(lp1477
S'401DE1430DWR.csv'
p1478
aI4320
aI90
aI1
aa(lp1479
S'410DW0120DWR.csv'
p1480
aI4320
aI90
aI1
aa(lp1481
S'404DN0080DSS.csv'
p1482
aI4320
aI90
aI1
aa(lp1483
S'401DW0260DWE.csv'
p1484
aI4320
aI90
aI1
aa(lp1485
S'QEWDE0380DES.csv'
p1486
aI4320
aI90
aI1
aa(lp1487
S'401DW0050DNR.csv'
p1488
aI4320
aI90
aI1
aa(lp1489
S'401DE0050DWE.csv'
p1490
aI4320
aI90
aI1
aa(lp1491
S'401DW0100DSS.csv'
p1492
aI4320
aI90
aI1
aa(lp1493
S'410DN0100DES.csv'
p1494
aI4320
aI90
aI1
aa(lp1495
S'QEWDE0450DWS.csv'
p1496
aI4320
aI90
aI1
aa(lp1497
S'401DE0740DSR.csv'
p1498
aI4320
aI90
aI1
aa(lp1499
S'401DE0200DEE.csv'
p1500
aI4320
aI90
aI1
aa(lp1501
S'400DN0080DNS.csv'
p1502
aI4320
aI90
aI1
aa(lp1503
S'QEWDS0080DNS.csv'
p1504
aI4320
aI90
aI1
aa(lp1505
S'404DN0110DSS.csv'
p1506
aI4320
aI90
aI1
aa(lp1507
S'QEWDE0510DES.csv'
p1508
aI4320
aI90
aI1
aa(lp1509
S'401DE0060DEE.csv'
p1510
aI4320
aI90
aI1
aa(lp1511
S'QEWDE0071DWS.csv'
p1512
aI4320
aI90
aI1
aa(lp1513
S'QEWDS0010DEF.csv'
p1514
aI4320
aI90
aI1
aa(lp1515
S'410DN0181DWS.csv'
p1516
aI4320
aI90
aI1
aa(lp1517
S'401DW0110DEE.csv'
p1518
aI4320
aI90
aI1
aa(lp1519
S'401DW0100DNR.csv'
p1520
aI4320
aI90
aI1
aa(lp1521
S'401DW0330DSR.csv'
p1522
aI4320
aI90
aI1
aa(lp1523
S'401DE0950DWR.csv'
p1524
aI4320
aI90
aI1
aa(lp1525
S'401DE0400DWC.csv'
p1526
aI4320
aI90
aI1
aa(lp1527
S'QEWDE0120DWS.csv'
p1528
aI4320
aI90
aI1
aa(lp1529
S'401DE0370DEC.csv'
p1530
aI4320
aI90
aI1
aa(lp1531
S'401DW0210DWE.csv'
p1532
aI4320
aI90
aI1
aa(lp1533
S'401DE0120DEE.csv'
p1534
aI4320
aI90
aI1
aa(lp1535
S'QEWDS0070DSR.csv'
p1536
aI4320
aI90
aI1
aa(lp1537
S'410DN0161DWS.csv'
p1538
aI4320
aI90
aI1
aa(lp1539
S'401DE0040DWT.csv'
p1540
aI4320
aI90
aI1
aa(lp1541
S'401DE1310DWR.csv'
p1542
aI4320
aI90
aI1
aa(lp1543
S'410DW0110DSR.csv'
p1544
aI4320
aI90
aI1
aa(lp1545
S'401DW0060DWC.csv'
p1546
aI4320
aI90
aI1
aa(lp1547
S'QEWDE0201DES.csv'
p1548
aI4320
aI90
aI1
aa(lp1549
S'QEWDS0100DNS.csv'
p1550
aI4320
aI90
aI1
aa(lp1551
S'QEWDS0040DNS.csv'
p1552
aI4320
aI90
aI1
aa(lp1553
S'404DN0100DNS.csv'
p1554
aI4320
aI90
aI1
aa(lp1555
S'404DN0121DSH.csv'
p1556
aI4320
aI90
aI1
aa(lp1557
S'410DN0220DWS.csv'
p1558
aI4320
aI90
aI1
aa(lp1559
S'QEWDE0040DES.csv'
p1560
aI4320
aI90
aI1
aa(lp1561
S'410DN0201DWS.csv'
p1562
aI4320
aI90
aI1
aa(lp1563
S'410DN0020DNS.csv'
p1564
aI4320
aI90
aI1
aa(lp1565
S'401DW0280DNR.csv'
p1566
aI4320
aI90
aI1
aa(lp1567
S'400DN0061DSS.csv'
p1568
aI4320
aI90
aI1
aa(lp1569
S'401DE0160DEC.csv'
p1570
aI4320
aI90
aI1
aa(lp1571
S'401DE0350DEC.csv'
p1572
aI4320
aI90
aI1
aa(lp1573
S'410DN0101DES.csv'
p1574
aI4320
aI90
aI1
aa(lp1575
S'QEWDE0145DWR.csv'
p1576
aI4320
aI90
aI1
aa(lp1577
S'401DW0020DWC.csv'
p1578
aI4320
aI90
aI1
aa(lp1579
S'401DE0070DWS.csv'
p1580
aI4320
aI90
aI1
aa(lp1581
S'410DW0090DNR.csv'
p1582
aI4320
aI90
aI1
aa(lp1583
S'QEWDE0051DWS.csv'
p1584
aI4320
aI90
aI1
aa(lp1585
S'410DN0160DER.csv'
p1586
aI4320
aI90
aI1
aa(lp1587
S'QEWDN0110DWR.csv'
p1588
aI4320
aI90
aI1
aa(lp1589
S'401DW0060DEC.csv'
p1590
aI4320
aI90
aI1
aa(lp1591
S'401DE1150DSR.csv'
p1592
aI4320
aI90
aI1
aa(lp1593
S'401DE0030DWE.csv'
p1594
aI4320
aI90
aI1
aa(lp1595
S'401DW0130DWR.csv'
p1596
aI4320
aI90
aI1
aa(lp1597
S'401DE0400DWE.csv'
p1598
aI4320
aI90
aI1
aa(lp1599
S'QEWDE0500DNR.csv'
p1600
aI4320
aI90
aI1
aa(lp1601
S'401DE0350DNR.csv'
p1602
aI4320
aI90
aI1
aa(lp1603
S'QEWDE0480DER.csv'
p1604
aI4320
aI90
aI1
aa(lp1605
S'401DE0110DEE.csv'
p1606
aI4320
aI90
aI1
aa(lp1607
S'410DN0090DSR.csv'
p1608
aI4320
aI90
aI1
aa(lp1609
S'401DE0150DEE.csv'
p1610
aI4320
aI90
aI1
aa(lp1611
S'QEWDE0150DWR.csv'
p1612
aI4320
aI90
aI1
aa(lp1613
S'QEWDE0241DES.csv'
p1614
aI4320
aI90
aI1
aa(lp1615
S'400DN0020DSE.csv'
p1616
aI4320
aI90
aI1
aa(lp1617
S'410DN0251DES.csv'
p1618
aI4320
aI90
aI1
aa(lp1619
S'401DE0360DWC.csv'
p1620
aI4320
aI90
aI1
aa(lp1621
S'400DN0060DNR.csv'
p1622
aI4320
aI90
aI1
aa(lp1623
S'QEWDE0121DWS.csv'
p1624
aI4320
aI90
aI1
aa(lp1625
S'401DW0060DET.csv'
p1626
aI4320
aI90
aI1
aa(lp1627
S'401DE0430DER.csv'
p1628
aI4320
aI90
aI1
aa(lp1629
S'401DE0020DES.csv'
p1630
aI4320
aI90
aI1
aa(lp1631
S'401DE0350DEE.csv'
p1632
aI4320
aI90
aI1
aa(lp1633
S'401DE0230DEE.csv'
p1634
aI4320
aI90
aI1
aa(lp1635
S'401DW0160DWC.csv'
p1636
aI4320
aI90
aI1
aa(lp1637
S'401DW0140DWC.csv'
p1638
aI4320
aI90
aI1
aa(lp1639
S'400DN0050DER.csv'
p1640
aI4320
aI90
aI1
aa(lp1641
S'401DE1110DSR.csv'
p1642
aI4320
aI90
aI1
aa(lp1643
S'QEWDE0041DWS.csv'
p1644
aI4320
aI90
aI1
aa(lp1645
S'404DN0091DSH.csv'
p1646
aI4320
aI90
aI1
aa(lp1647
S'400DN0005DSS.csv'
p1648
aI4320
aI90
aI1
aa(lp1649
S'QEWDE0261DES.csv'
p1650
aI4320
aI90
aI1
aa(lp1651
S'401DE0410DEE.csv'
p1652
aI4320
aI90
aI1
aa(lp1653
S'QEWDE0200DWR.csv'
p1654
aI4320
aI90
aI1
aa(lp1655
S'410DN0240DWS.csv'
p1656
aI4320
aI90
aI1
aa(lp1657
S'QEWDE0230DWS.csv'
p1658
aI4320
aI90
aI1
aa(lp1659
S'410DN0290DER.csv'
p1660
aI4320
aI90
aI1
aa(lp1661
S'401DE0140DWC.csv'
p1662
aI4320
aI90
aI1
aa(lp1663
S'QEWDS0150DNS.csv'
p1664
aI4320
aI90
aI1
aa(lp1665
S'401DE0030DET.csv'
p1666
aI4320
aI90
aI1
aa(lp1667
S'QEWDS0020DSR.csv'
p1668
aI4320
aI90
aI1
aa(lp1669
S'410DN0190DWS.csv'
p1670
aI4320
aI90
aI1
aa(lp1671
S'401DE0320DEE.csv'
p1672
aI4320
aI90
aI1
aa(lp1673
S'401DW0070DEE.csv'
p1674
aI4320
aI90
aI1
aa(lp1675
S'404DN0020DNS.csv'
p1676
aI4320
aI90
aI1
aa(lp1677
S'401DE1290DNR.csv'
p1678
aI4320
aI90
aI1
aa(lp1679
S'QEWDE0360DES.csv'
p1680
aI4320
aI90
aI1
aa(lp1681
S'401DE0100DWT.csv'
p1682
aI4320
aI90
aI1
aa(lp1683
S'400DN0020DNC.csv'
p1684
aI4320
aI90
aI1
aa(lp1685
S'QEWDE0360DSR.csv'
p1686
aI4320
aI90
aI1
aa(lp1687
S'401DE1040DWR.csv'
p1688
aI4320
aI90
aI1
aa(lp1689
S'401DE0030DEC.csv'
p1690
aI4320
aI90
aI1
aa(lp1691
S'QEWDE0350DWS.csv'
p1692
aI4320
aI90
aI1
aa(lp1693
S'401DE0040DEE.csv'
p1694
aI4320
aI90
aI1
aa(lp1695
S'401DE0460DWE.csv'
p1696
aI4320
aI90
aI1
aa(lp1697
S'410DW0060DNR.csv'
p1698
aI4320
aI90
aI1
aa(lp1699
S'404DN0021DSH.csv'
p1700
aI4320
aI90
aI1
aa(lp1701
S'401DW0080DWR.csv'
p1702
aI4320
aI90
aI1
aa(lp1703
S'QEWDE0130DER.csv'
p1704
aI4320
aI90
aI1
aa(lp1705
S'410DN0280DWR.csv'
p1706
aI4320
aI90
aI1
aa(lp1707
S'404DN0071DNH.csv'
p1708
aI4320
aI90
aI1
aa(lp1709
S'403DN0030DWR.csv'
p1710
aI4320
aI90
aI1
aa(lp1711
S'401DE0320DEC.csv'
p1712
aI4320
aI90
aI1
aa(lp1713
S'401DE0070DET.csv'
p1714
aI4320
aI90
aI1
aa(lp1715
S'QEWDE0181DES.csv'
p1716
aI4320
aI90
aI1
aa(lp1717
S'QEWDE0530DES.csv'
p1718
aI4320
aI90
aI1
aa(lp1719
S'401DE0070DWC.csv'
p1720
aI4320
aI90
aI1
aa(lp1721
S'QEWDE0410DWS.csv'
p1722
aI4320
aI90
aI1
aa(lp1723
S'410DN0180DWS.csv'
p1724
aI4320
aI90
aI1
aa(lp1725
S'410DN0171DES.csv'
p1726
aI4320
aI90
aI1
aa(lp1727
S'401DW0080DNF.csv'
p1728
aI4320
aI90
aI1
aa(lp1729
S'404DN0020DNR.csv'
p1730
aI4320
aI90
aI1
aa(lp1731
S'401DE0040DWC.csv'
p1732
aI4320
aI90
aI1
aa(lp1733
S'401DE0970DNR.csv'
p1734
aI4320
aI90
aI1
aa(lp1735
S'401DE0310DEE.csv'
p1736
aI4320
aI90
aI1
aa(lp1737
S'401DW0050DES.csv'
p1738
aI4320
aI90
aI1
aa(lp1739
S'401DE0410DWE.csv'
p1740
aI4320
aI90
aI1
aa(lp1741
S'QEWDS0040DWR.csv'
p1742
aI4320
aI90
aI1
aa(lp1743
S'410DW0020DWR.csv'
p1744
aI4320
aI90
aI1
aa(lp1745
S'QEWDS0080DSS.csv'
p1746
aI4320
aI90
aI1
aa(lp1747
S'401DE0360DEE.csv'
p1748
aI4320
aI90
aI1
aa(lp1749
S'QEWDE0500DES.csv'
p1750
aI4320
aI90
aI1
aa(lp1751
S'QEWDE0340DES.csv'
p1752
aI4320
aI90
aI1
aa(lp1753
S'QEWDE0080DER.csv'
p1754
aI4320
aI90
aI1
aa(lp1755
S'404DN0030DSR.csv'
p1756
aI4320
aI90
aI1
aa(lp1757
S'QEWDE0130DES.csv'
p1758
aI4320
aI90
aI1
aa(lp1759
S'401DE0510DWC.csv'
p1760
aI4320
aI90
aI1
aa(lp1761
S'QEWDE0180DWS.csv'
p1762
aI4320
aI90
aI1
aa(lp1763
S'QEWDE0251DWS.csv'
p1764
aI4320
aI90
aI1
aa(lp1765
S'QEWDE0241DWS.csv'
p1766
aI4320
aI90
aI1
aa(lp1767
S'401DE0130DEE.csv'
p1768
aI4320
aI90
aI1
aa(lp1769
S'401DW0360DER.csv'
p1770
aI4320
aI90
aI1
aa(lp1771
S'401DW0060DNF.csv'
p1772
aI4320
aI90
aI1
aa(lp1773
S'QEWDE0050DWS.csv'
p1774
aI4320
aI90
aI1
aa(lp1775
S'QEWDE0051DES.csv'
p1776
aI4320
aI90
aI1
aa(lp1777
S'401DW0430DWR.csv'
p1778
aI4320
aI90
aI1
aa(lp1779
S'QEWDE0201DWS.csv'
p1780
aI4320
aI90
aI1
aa(lp1781
S'410DN0170DER.csv'
p1782
aI4320
aI90
aI1
aa(lp1783
S'401DE0130DNR.csv'
p1784
aI4320
aI90
aI1
aa(lp1785
S'401DE0080DEC.csv'
p1786
aI4320
aI90
aI1
aa(lp1787
S'401DW0450DER.csv'
p1788
aI4320
aI90
aI1
aa(lp1789
S'404DN0070DNS.csv'
p1790
aI4320
aI90
aI1
aa(lp1791
S'QEWDE0190DES.csv'
p1792
aI4320
aI90
aI1
aa(lp1793
S'401DE0130DWE.csv'
p1794
aI4320
aI90
aI1
aa(lp1795
S'401DE0110DWC.csv'
p1796
aI4320
aI90
aI1
aa(lp1797
S'401DW0210DEE.csv'
p1798
aI4320
aI90
aI1
aa(lp1799
S'400DN0030DSC.csv'
p1800
aI4320
aI90
aI1
aa(lp1801
S'410DN0070DSS.csv'
p1802
aI4320
aI90
aI1
aa(lp1803
S'401DE0512DWR.csv'
p1804
aI4320
aI90
aI1
aa(lp1805
S'401DE0150DEC.csv'
p1806
aI4320
aI90
aI1
aa(lp1807
S'410DN0140DNR.csv'
p1808
aI4320
aI90
aI1
aa(lp1809
S'401DW0010DES.csv'
p1810
aI4320
aI90
aI1
aa(lp1811
S'401DE0160DWT.csv'
p1812
aI4320
aI90
aI1
aa(lp1813
S'400DN0040DSS.csv'
p1814
aI4320
aI90
aI1
aa(lp1815
S'401DW0010DEE.csv'
p1816
aI4320
aI90
aI1
aa(lp1817
S'401DE0570DEC.csv'
p1818
aI4320
aI90
aI1
aa(lp1819
S'QEWDE0200DES.csv'
p1820
aI4320
aI90
aI1
aa(lp1821
S'QEWDE0410DES.csv'
p1822
aI4320
aI90
aI1
aa(lp1823
S'401DE0560DWC.csv'
p1824
aI4320
aI90
aI1
aa(lp1825
S'410DW0020DNE.csv'
p1826
aI4320
aI90
aI1
aa(lp1827
S'404DN0050DNS.csv'
p1828
aI4320
aI90
aI1
aa(lp1829
S'410DN0010DNR.csv'
p1830
aI4320
aI90
aI1
aa(lp1831
S'QEWDE0380DER.csv'
p1832
aI4320
aI90
aI1
aa(lp1833
S'401DE0240DET.csv'
p1834
aI4320
aI90
aI1
aa(lp1835
S'401DW0360DWR.csv'
p1836
aI4320
aI90
aI1
aa(lp1837
S'401DE0030DEE.csv'
p1838
aI4320
aI90
aI1
aa(lp1839
S'401DE0020DEC.csv'
p1840
aI4320
aI90
aI1
aa(lp1841
S'410DN0210DES.csv'
p1842
aI4320
aI90
aI1
aa(lp1843
S'401DE0680DER.csv'
p1844
aI4320
aI90
aI1
aa(lp1845
S'400DN0010DNC.csv'
p1846
aI4320
aI90
aI1
aa(lp1847
S'401DE1180DER.csv'
p1848
aI4320
aI90
aI1
aa(lp1849
S'404DN0071DSH.csv'
p1850
aI4320
aI90
aI1
aa(lp1851
S'401DW0070DES.csv'
p1852
aI4320
aI90
aI1
aa(lp1853
S'401DE0620DNR.csv'
p1854
aI4320
aI90
aI1
aa(lp1855
S'401DW0040DET.csv'
p1856
aI4320
aI90
aI1
aa(lp1857
S'401DE0130DWC.csv'
p1858
aI4320
aI90
aI1
aa(lp1859
S'401DE0180DWE.csv'
p1860
aI4320
aI90
aI1
aa(lp1861
S'401DW0190DWC.csv'
p1862
aI4320
aI90
aI1
aa(lp1863
S'401DW0230DWE.csv'
p1864
aI4320
aI90
aI1
aa(lp1865
S'QEWDE0251DES.csv'
p1866
aI4320
aI90
aI1
aa(lp1867
S'401DE0860DER.csv'
p1868
aI4320
aI90
aI1
aa(lp1869
S'QEWDE0071DES.csv'
p1870
aI4320
aI90
aI1
aa(lp1871
S'QEWDE0290DWR.csv'
p1872
aI4320
aI90
aI1
aa(lp1873
S'401DW0030DWC.csv'
p1874
aI4320
aI90
aI1
aa(lp1875
S'401DE0780DER.csv'
p1876
aI4320
aI90
aI1
aa(lp1877
S'400DN0050DNC.csv'
p1878
aI4320
aI90
aI1
aa(lp1879
S'401DE0070DEE.csv'
p1880
aI4320
aI90
aI1
aa(lp1881
S'QEWDE0380DWS.csv'
p1882
aI4320
aI90
aI1
aa(lp1883
S'401DW0180DWR.csv'
p1884
aI4320
aI90
aI1
aa(lp1885
S'410DW0090DSR.csv'
p1886
aI4320
aI90
aI1
aa(lp1887
S'QEWDS0090DNS.csv'
p1888
aI4320
aI90
aI1
aa(lp1889
S'QEWDN0120DER.csv'
p1890
aI4320
aI90
aI1
aa(lp1891
S'410DN0020DWR.csv'
p1892
aI4320
aI90
aI1
aa(lp1893
S'401DW0230DNR.csv'
p1894
aI4320
aI90
aI1
aa(lp1895
S'401DW0100DWC.csv'
p1896
aI4320
aI90
aI1
aa(lp1897
S'401DE0890DWR.csv'
p1898
aI4320
aI90
aI1
aa(lp1899
S'QEWDE0420DNR.csv'
p1900
aI4320
aI90
aI1
aa(lp1901
S'401DE0260DWT.csv'
p1902
aI4320
aI90
aI1
aa(lp1903
S'QEWDE0460DES.csv'
p1904
aI4320
aI90
aI1
aa(lp1905
S'401DE0710DER.csv'
p1906
aI4320
aI90
aI1
aa(lp1907
S'QEWDN0060DSS.csv'
p1908
aI4320
aI90
aI1
aa(lp1909
S'QEWDS0075DSR.csv'
p1910
aI4320
aI90
aI1
aa(lp1911
S'410DN0130DWS.csv'
p1912
aI4320
aI90
aI1
aa(lp1913
S'QEWDN0050DNS.csv'
p1914
aI4320
aI90
aI1
aa(lp1915
S'404DN0030DER.csv'
p1916
aI4320
aI90
aI1
aa(lp1917
S'401DE0490DEC.csv'
p1918
aI4320
aI90
aI1
aa(lp1919
S'401DW0040DEC.csv'
p1920
aI4320
aI90
aI1
aa(lp1921
S'QEWDE0140DES.csv'
p1922
aI4320
aI90
aI1
aa(lp1923
S'401DE0400DNR.csv'
p1924
aI4320
aI90
aI1
aa(lp1925
S'401DE0290DWE.csv'
p1926
aI4320
aI90
aI1
aa(lp1927
S'QEWDE0350DER.csv'
p1928
aI4320
aI90
aI1
aa(lp1929
S'410DN0200DES.csv'
p1930
aI4320
aI90
aI1
aa(lp1931
S'401DW0390DWR.csv'
p1932
aI4320
aI90
aI1
aa(lp1933
S'400DN0020DSS.csv'
p1934
aI4320
aI90
aI1
aa(lp1935
S'410DN0140DES.csv'
p1936
aI4320
aI90
aI1
aa(lp1937
S'401DW0190DEC.csv'
p1938
aI4320
aI90
aI1
aa(lp1939
S'QEWDN0040DSS.csv'
p1940
aI4320
aI90
aI1
aa(lp1941
S'404DN0090DER.csv'
p1942
aI4320
aI90
aI1
aa(lp1943
S'QEWDE0470DSR.csv'
p1944
aI4320
aI90
aI1
aa(lp1945
S'401DW0240DWE.csv'
p1946
aI4320
aI90
aI1
aa(lp1947
S'410DW1040DNS.csv'
p1948
aI4320
aI90
aI1
aa(lp1949
S'401DE0340DWE.csv'
p1950
aI4320
aI90
aI1
aa(lp1951
S'410DN0131DES.csv'
p1952
aI4320
aI90
aI1
aa(lp1953
S'401DE0100DWC.csv'
p1954
aI4320
aI90
aI1
aa(lp1955
S'401DE0518DWR.csv'
p1956
aI4320
aI90
aI1
aa(lp1957
S'400DN0060DSR.csv'
p1958
aI4320
aI90
aI1
aa(lp1959
S'410DN0150DWR.csv'
p1960
aI4320
aI90
aI1
aa(lp1961
S'401DW0010DWT.csv'
p1962
aI4320
aI90
aI1
aa(lp1963
S'401DE0480DWE.csv'
p1964
aI4320
aI90
aI1
aa(lp1965
S'QEWDE0540DWS.csv'
p1966
aI4320
aI90
aI1
aa(lp1967
S'QEWDN0020DNS.csv'
p1968
aI4320
aI90
aI1
aa(lp1969
S'401DW0040DES.csv'
p1970
aI4320
aI90
aI1
aa(lp1971
S'QEWDE0221DES.csv'
p1972
aI4320
aI90
aI1
aa(lp1973
S'401DE0020DWE.csv'
p1974
aI4320
aI90
aI1
aa(lp1975
S'401DW0320DWR.csv'
p1976
aI4320
aI90
aI1
aa(lp1977
S'401DE0300DWR.csv'
p1978
aI4320
aI90
aI1
aa(lp1979
S'QEWDE0060DWS.csv'
p1980
aI4320
aI90
aI1
aa(lp1981
S'QEWDE0350DES.csv'
p1982
aI4320
aI90
aI1
aa(lp1983
S'QEWDS0110DSS.csv'
p1984
aI4320
aI90
aI1
aa(lp1985
S'401DE0260DWC.csv'
p1986
aI4320
aI90
aI1
aa(lp1987
S'401DE0580DSR.csv'
p1988
aI4320
aI90
aI1
aa(lp1989
S'401DW0100DSF.csv'
p1990
aI4320
aI90
aI1
aa(lp1991
S'401DE0380DWR.csv'
p1992
aI4320
aI90
aI1
aa(lp1993
S'401DE0400DEC.csv'
p1994
aI4320
aI90
aI1
aa(lp1995
S'410DN0120DWS.csv'
p1996
aI4320
aI90
aI1
aa(lp1997
S'QEWDE0370DES.csv'
p1998
aI4320
aI90
aI1
aa(lp1999
S'QEWDE0050DES.csv'
p2000
aI4320
aI90
aI1
aa(lp2001
S'QEWDE0191DES.csv'
p2002
aI4320
aI90
aI1
aa(lp2003
S'401DE0190DEC.csv'
p2004
aI4320
aI90
aI1
aa(lp2005
S'410DN0220DES.csv'
p2006
aI4320
aI90
aI1
aa(lp2007
S'QEWDE0080DWR.csv'
p2008
aI4320
aI90
aI1
aa(lp2009
S'400DN0050DNS.csv'
p2010
aI4320
aI90
aI1
aa(lp2011
S'401DE0080DEE.csv'
p2012
aI4320
aI90
aI1
aa(lp2013
S'404DN0010DSR.csv'
p2014
aI4320
aI90
aI1
aa(lp2015
S'401DE0280DNR.csv'
p2016
aI4320
aI90
aI1
aa(lp2017
S'401DE0510DEE.csv'
p2018
aI4320
aI90
aI1
aa(lp2019
S'401DW0050DWE.csv'
p2020
aI4320
aI90
aI1
aa(lp2021
S'404DN0021DNH.csv'
p2022
aI4320
aI90
aI1
aa(lp2023
S'QEWDE0430DNR.csv'
p2024
aI4320
aI90
aI1
aa(lp2025
S'410DN0230DES.csv'
p2026
aI4320
aI90
aI1
aa(lp2027
S'401DW0030DEC.csv'
p2028
aI4320
aI90
aI1
aa(lp2029
S'401DW0020DER.csv'
p2030
aI4320
aI90
aI1
aa(lp2031
S'410DN0231DWS.csv'
p2032
aI4320
aI90
aI1
aa(lp2033
S'401DW0200DEE.csv'
p2034
aI4320
aI90
aI1
aa(lp2035
S'QEWDE0160DER.csv'
p2036
aI4320
aI90
aI1
aa(lp2037
S'QEWDE0320DNR.csv'
p2038
aI4320
aI90
aI1
aa(lp2039
S'QEWDE0130DWR.csv'
p2040
aI4320
aI90
aI1
aa(lp2041
S'QEWDE0320DSR.csv'
p2042
aI4320
aI90
aI1
aa(lp2043
S'401DE0240DWC.csv'
p2044
aI4320
aI90
aI1
aa(lp2045
S'401DE0560DWE.csv'
p2046
aI4320
aI90
aI1
aa(lp2047
S'401DW0380DER.csv'
p2048
aI4320
aI90
aI1
aa(lp2049
S'QEWDE0100DES.csv'
p2050
aI4320
aI90
aI1
aa(lp2051
S'410DN0181DES.csv'
p2052
aI4320
aI90
aI1
aa(lp2053
S'401DE0760DWR.csv'
p2054
aI4320
aI90
aI1
aa(lp2055
S'404DN0041DNH.csv'
p2056
aI4320
aI90
aI1
aa(lp2057
S'QEWDE0550DES.csv'
p2058
aI4320
aI90
aI1
aa(lp2059
S'401DE0390DWC.csv'
p2060
aI4320
aI90
aI1
aa(lp2061
S'401DE0270DEE.csv'
p2062
aI4320
aI90
aI1
aa(lp2063
S'QEWDE0330DWS.csv'
p2064
aI4320
aI90
aI1
aa(lp2065
S'401DW0050DWC.csv'
p2066
aI4320
aI90
aI1
aa(lp2067
S'401DW0150DSR.csv'
p2068
aI4320
aI90
aI1
aa(lp2069
S'QEWDE0400DWR.csv'
p2070
aI4320
aI90
aI1
aa(lp2071
S'QEWDS0010DWF.csv'
p2072
aI4320
aI90
aI1
aa(lp2073
S'400DN0010DSE.csv'
p2074
aI4320
aI90
aI1
aa(lp2075
S'QEWDE0120DWR.csv'
p2076
aI4320
aI90
aI1
aa(lp2077
S'QEWDS0150DSS.csv'
p2078
aI4320
aI90
aI1
aa(lp2079
S'404DN0040DNR.csv'
p2080
aI4320
aI90
aI1
aa(lp2081
S'401DW0451DER.csv'
p2082
aI4320
aI90
aI1
aa(lp2083
S'401DE0361DSR.csv'
p2084
aI4320
aI90
aI1
aa(lp2085
S'QEWDS0060DSS.csv'
p2086
aI4320
aI90
aI1
aa(lp2087
S'401DE0510DWR.csv'
p2088
aI4320
aI90
aI1
aa(lp2089
S'QEWDE0070DWS.csv'
p2090
aI4320
aI90
aI1
aa(lp2091
S'400DN0030DNR.csv'
p2092
aI4320
aI90
aI1
aa(lp2093
S'401DE0040DWS.csv'
p2094
aI4320
aI90
aI1
aa(lp2095
S'401DE1320DNR.csv'
p2096
aI4320
aI90
aI1
aa(lp2097
S'401DW0461DER.csv'
p2098
aI4320
aI90
aI1
aa(lp2099
S'401DW0050DET.csv'
p2100
aI4320
aI90
aI1
aa(lp2101
S'QEWDE0205DWR.csv'
p2102
aI4320
aI90
aI1
aa(lp2103
S'401DW0471DER.csv'
p2104
aI4320
aI90
aI1
aa(lp2105
S'401DE0220DWR.csv'
p2106
aI4320
aI90
aI1
aa(lp2107
S'401DW0400DSR.csv'
p2108
aI4320
aI90
aI1
aa(lp2109
S'410DN0080DNS.csv'
p2110
aI4320
aI90
aI1
aa(lp2111
S'404DN0080DSR.csv'
p2112
aI4320
aI90
aI1
aa(lp2113
S'401DW0170DWR.csv'
p2114
aI4320
aI90
aI1
aa(lp2115
S'404DN0030DSS.csv'
p2116
aI4320
aI90
aI1
aa(lp2117
S'401DE0730DNR.csv'
p2118
aI4320
aI90
aI1
aa(lp2119
S'410DN0050DSS.csv'
p2120
aI4320
aI90
aI1
aa(lp2121
S'400DN0120DSS.csv'
p2122
aI4320
aI90
aI1
aa(lp2123
S'410DN0030DSS.csv'
p2124
aI4320
aI90
aI1
aa(lp2125
S'410DN0250DWR.csv'
p2126
aI4320
aI90
aI1
aa(lp2127
S'401DW0200DWE.csv'
p2128
aI4320
aI90
aI1
aa(lp2129
S'QEWDS0120DSS.csv'
p2130
aI4320
aI90
aI1
aa(lp2131
S'401DW0040DWC.csv'
p2132
aI4320
aI90
aI1
aa(lp2133
S'410DW0050DNR.csv'
p2134
aI4320
aI90
aI1
aa(lp2135
S'QEWDE0101DES.csv'
p2136
aI4320
aI90
aI1
aa(lp2137
S'QEWDE0310DSR.csv'
p2138
aI4320
aI90
aI1
aa(lp2139
S'QEWDS0130DNS.csv'
p2140
aI4320
aI90
aI1
aa(lp2141
S'403DN0030DEF.csv'
p2142
aI4320
aI90
aI1
aa(lp2143
S'410DN0060DSR.csv'
p2144
aI4320
aI90
aI1
aa(lp2145
S'403DN0020DSR.csv'
p2146
aI4320
aI90
aI1
aa(lp2147
S'QEWDE0050DWR.csv'
p2148
aI4320
aI90
aI1
aa(lp2149
S'QEWDE0320DES.csv'
p2150
aI4320
aI90
aI1
aa(lp2151
S'401DE0220DWT.csv'
p2152
aI4320
aI90
aI1
aa(lp2153
S'401DE0870DWR.csv'
p2154
aI4320
aI90
aI1
aa(lp2155
S'401DW0080DWC.csv'
p2156
aI4320
aI90
aI1
aa(lp2157
S'404DN0020DSS.csv'
p2158
aI4320
aI90
aI1
aa(lp2159
S'401DE0200DSR.csv'
p2160
aI4320
aI90
aI1
aa(lp2161
S'400DN0090DSS.csv'
p2162
aI4320
aI90
aI1
aa(lp2163
S'401DW0110DNR.csv'
p2164
aI4320
aI90
aI1
aa(lp2165
S'404DN0010DSE.csv'
p2166
aI4320
aI90
aI1
aa(lp2167
S'404DN0051DNH.csv'
p2168
aI4320
aI90
aI1
aa(lp2169
S'401DE0030DES.csv'
p2170
aI4320
aI90
aI1
aa(lp2171
S'400DN0090DSR.csv'
p2172
aI4320
aI90
aI1
aa(lp2173
S'401DE0370DEE.csv'
p2174
aI4320
aI90
aI1
aa(lp2175
S'QEWDE0111DWS.csv'
p2176
aI4320
aI90
aI1
aa(lp2177
S'400DN0060DNS.csv'
p2178
aI4320
aI90
aI1
aa(lp2179
S'401DE0370DWC.csv'
p2180
aI4320
aI90
aI1
aa(lp2181
S'404DN0040DSR.csv'
p2182
aI4320
aI90
aI1
aa(lp2183
S'401DE0280DEE.csv'
p2184
aI4320
aI90
aI1
aa(lp2185
S'401DW0020DEC.csv'
p2186
aI4320
aI90
aI1
aa(lp2187
S'QEWDE0295DSR.csv'
p2188
aI4320
aI90
aI1
aa(lp2189
S'401DE1000DWR.csv'
p2190
aI4320
aI90
aI1
aa(lp2191
S'QEWDE0211DES.csv'
p2192
aI4320
aI90
aI1
aa(lp2193
S'401DE0060DWE.csv'
p2194
aI4320
aI90
aI1
aa(lp2195
S'401DE0640DSR.csv'
p2196
aI4320
aI90
aI1
aa(lp2197
S'QEWDE0440DES.csv'
p2198
aI4320
aI90
aI1
aa(lp2199
S'QEWDS0030DSS.csv'
p2200
aI4320
aI90
aI1
aa(lp2201
S'QEWDS0050DSS.csv'
p2202
aI4320
aI90
aI1
aa(lp2203
S'404DN0110DNS.csv'
p2204
aI4320
aI90
aI1
aa(lp2205
S'QEWDE0480DES.csv'
p2206
aI4320
aI90
aI1
aa(lp2207
S'401DE0520DWC.csv'
p2208
aI4320
aI90
aI1
aa(lp2209
S'401DE0070DEC.csv'
p2210
aI4320
aI90
aI1
aa(lp2211
S'401DW0140DEC.csv'
p2212
aI4320
aI90
aI1
aa(lp2213
S'QEWDE0150DER.csv'
p2214
aI4320
aI90
aI1
aa(lp2215
S'401DE0020DET.csv'
p2216
aI4320
aI90
aI1
aa(lp2217
S'401DE1130DWR.csv'
p2218
aI4320
aI90
aI1
aa(lp2219
S'400DN0010DER.csv'
p2220
aI4320
aI90
aI1
aa(lp2221
S'QEWDE0550DWS.csv'
p2222
aI4320
aI90
aI1
aa(lp2223
S'401DW0060DNR.csv'
p2224
aI4320
aI90
aI1
aa(lp2225
S'QEWDE0310DNR.csv'
p2226
aI4320
aI90
aI1
aa(lp2227
S'401DE1370DER.csv'
p2228
aI4320
aI90
aI1
aa(lp2229
S'QEWDE0180DWR.csv'
p2230
aI4320
aI90
aI1
aa(lp2231
S'410DN0110DES.csv'
p2232
aI4320
aI90
aI1
aa(lp2233
S'404DN0011DSH.csv'
p2234
aI4320
aI90
aI1
aa(lp2235
S'QEWDE0091DES.csv'
p2236
aI4320
aI90
aI1
aa(lp2237
S'410DW1040DSS.csv'
p2238
aI4320
aI90
aI1
aa(lp2239
S'QEWDE0160DWR.csv'
p2240
aI4320
aI90
aI1
aa(lp2241
S'401DE1220DER.csv'
p2242
aI4320
aI90
aI1
aa(lp2243
S'401DE0510DWE.csv'
p2244
aI4320
aI90
aI1
aa(lp2245
S'401DE1120DER.csv'
p2246
aI4320
aI90
aI1
aa(lp2247
S'410DN0060DSS.csv'
p2248
aI4320
aI90
aI1
aa(lp2249
S'401DE0790DWR.csv'
p2250
aI4320
aI90
aI1
aa(lp2251
S'401DE0470DWC.csv'
p2252
aI4320
aI90
aI1
aa(lp2253
S'410DN0120DER.csv'
p2254
aI4320
aI90
aI1
aa(lp2255
S'400DN0010DSR.csv'
p2256
aI4320
aI90
aI1
aa(lp2257
S'410DW0030DSE.csv'
p2258
aI4320
aI90
aI1
aa(lp2259
S'404DN0041DSH.csv'
p2260
aI4320
aI90
aI1
aa(lp2261
S'QEWDE0100DER.csv'
p2262
aI4320
aI90
aI1
aa(lp2263
S'401DE0880DER.csv'
p2264
aI4320
aI90
aI1
aa(lp2265
S'400DN0120DNS.csv'
p2266
aI4320
aI90
aI1
aa(lp2267
S'QEWDE0260DWR.csv'
p2268
aI4320
aI90
aI1
aa(lp2269
S'404DN0050DSS.csv'
p2270
aI4320
aI90
aI1
aa(lp2271
S'401DE0390DER.csv'
p2272
aI4320
aI90
aI1
aa(lp2273
S'404DN0010DSC.csv'
p2274
aI4320
aI90
aI1
aa(lp2275
S'410DN0210DWS.csv'
p2276
aI4320
aI90
aI1
aa(lp2277
S'401DE0040DWR.csv'
p2278
aI4320
aI90
aI1
aa(lp2279
S'410DN0270DNR.csv'
p2280
aI4320
aI90
aI1
aa(lp2281
S'401DE0270DWC.csv'
p2282
aI4320
aI90
aI1
aa(lp2283
S'401DE0550DWC.csv'
p2284
aI4320
aI90
aI1
aa(lp2285
S'401DE0060DWS.csv'
p2286
aI4320
aI90
aI1
aa(lp2287
S'401DW0420DSR.csv'
p2288
aI4320
aI90
aI1
aa(lp2289
S'410DN0100DWR.csv'
p2290
aI4320
aI90
aI1
aa(lp2291
S'401DE0100DEC.csv'
p2292
aI4320
aI90
aI1
aa(lp2293
S'410DW0040DNR.csv'
p2294
aI4320
aI90
aI1
aa(lp2295
S'404DN0040DNS.csv'
p2296
aI4320
aI90
aI1
aa(lp2297
S'401DE0830DSR.csv'
p2298
aI4320
aI90
aI1
aa(lp2299
S'401DW0180DWC.csv'
p2300
aI4320
aI90
aI1
aa(lp2301
S'401DW0100DEC.csv'
p2302
aI4320
aI90
aI1
aa(lp2303
S'410DW1030DNS.csv'
p2304
aI4320
aI90
aI1
aa(lp2305
S'401DE0655DER.csv'
p2306
aI4320
aI90
aI1
aa(lp2307
S'401DE0590DSR.csv'
p2308
aI4320
aI90
aI1
aa(lp2309
S'QEWDN0030DNS.csv'
p2310
aI4320
aI90
aI1
aa(lp2311
S'410DN0270DSR.csv'
p2312
aI4320
aI90
aI1
aa(lp2313
S'QEWDN0080DSR.csv'
p2314
aI4320
aI90
aI1
aa(lp2315
S'401DE0210DEE.csv'
p2316
aI4320
aI90
aI1
aa(lp2317
S'401DW0450DWR.csv'
p2318
aI4320
aI90
aI1
aa(lp2319
S'404DN0100DSS.csv'
p2320
aI4320
aI90
aI1
aa(lp2321
S'401DE0350DWE.csv'
p2322
aI4320
aI90
aI1
aa(lp2323
S'403DN0020DWF.csv'
p2324
aI4320
aI90
aI1
aa(lp2325
S'410DN0131DWS.csv'
p2326
aI4320
aI90
aI1
aa(lp2327
S'410DN0060DNS.csv'
p2328
aI4320
aI90
aI1
aa(lp2329
S'QEWDS0020DNS.csv'
p2330
aI4320
aI90
aI1
aa(lp2331
S'401DE0440DEE.csv'
p2332
aI4320
aI90
aI1
aa(lp2333
S'401DW0260DEE.csv'
p2334
aI4320
aI90
aI1
aa(lp2335
S'401DE0160DWE.csv'
p2336
aI4320
aI90
aI1
aa(lp2337
S'400DN0080DWR.csv'
p2338
aI4320
aI90
aI1
aa(lp2339
S'401DE0600DEE.csv'
p2340
aI4320
aI90
aI1
aa(lp2341
S'410DW0020DNC.csv'
p2342
aI4320
aI90
aI1
aa(lp2343
S'404DN0050DNR.csv'
p2344
aI4320
aI90
aI1
aa(lp2345
S'QEWDE0240DWR.csv'
p2346
aI4320
aI90
aI1
aa(lp2347
S'401DE0080DWC.csv'
p2348
aI4320
aI90
aI1
aa(lp2349
S'404DN0110DNR.csv'
p2350
aI4320
aI90
aI1
aa(lp2351
S'401DE0370DWR.csv'
p2352
aI4320
aI90
aI1
aa(lp2353
S'401DW0050DWS.csv'
p2354
aI4320
aI90
aI1
aa(lp2355
S'410DW0010DNC.csv'
p2356
aI4320
aI90
aI1
aa(lp2357
S'QEWDN0050DSS.csv'
p2358
aI4320
aI90
aI1
aa(lp2359
S'410DN0110DWR.csv'
p2360
aI4320
aI90
aI1
aa(lp2361
S'QEWDE0020DES.csv'
p2362
aI4320
aI90
aI1
aa(lp2363
S'401DE0600DWR.csv'
p2364
aI4320
aI90
aI1
aa(lp2365
S'401DE0040DEC.csv'
p2366
aI4320
aI90
aI1
aa(lp2367
S'404DE0010DST.csv'
p2368
aI4320
aI90
aI1
aa(lp2369
S'401DE0480DEE.csv'
p2370
aI4320
aI90
aI1
aa(lp2371
S'400DN0070DSR.csv'
p2372
aI4320
aI90
aI1
aa(lp2373
S'QEWDE0090DWS.csv'
p2374
aI4320
aI90
aI1
aa(lp2375
S'401DE0720DWR.csv'
p2376
aI4320
aI90
aI1
aa(lp2377
S'410DW0030DSR.csv'
p2378
aI4320
aI90
aI1
aa(lp2379
S'401DE0070DES.csv'
p2380
aI4320
aI90
aI1
aa(lp2381
S'QEWDE0170DWS.csv'
p2382
aI4320
aI90
aI1
aa(lp2383
S'401DE0220DWC.csv'
p2384
aI4320
aI90
aI1
aa(lp2385
S'401DE0541DWR.csv'
p2386
aI4320
aI90
aI1
aa(lp2387
S'410DN0160DES.csv'
p2388
aI4320
aI90
aI1
aa(lp2389
S'401DE0130DET.csv'
p2390
aI4320
aI90
aI1
aa(lp2391
S'410DN0050DNS.csv'
p2392
aI4320
aI90
aI1
aa(lp2393
S'QEWDE0135DER.csv'
p2394
aI4320
aI90
aI1
aa(lp2395
S'410DN0100DWS.csv'
p2396
aI4320
aI90
aI1
aa(lp2397
S'404DN0061DNH.csv'
p2398
aI4320
aI90
aI1
aa(lp2399
S'410DN0221DES.csv'
p2400
aI4320
aI90
aI1
aa(lp2401
S'401DE0510DEC.csv'
p2402
aI4320
aI90
aI1
aa(lp2403
S'401DE0330DEE.csv'
p2404
aI4320
aI90
aI1
aa(lp2405
S'404DN0070DSS.csv'
p2406
aI4320
aI90
aI1
aa(lp2407
S'401DE0610DEE.csv'
p2408
aI4320
aI90
aI1
aa(lp2409
S'410DW0010DSC.csv'
p2410
aI4320
aI90
aI1
aa(lp2411
S'401DE1080DNR.csv'
p2412
aI4320
aI90
aI1
aa(lp2413
S'404DN0031DNH.csv'
p2414
aI4320
aI90
aI1
aa(lp2415
S'404DN0020DWR.csv'
p2416
aI4320
aI90
aI1
aa(lp2417
S'401DE0310DWC.csv'
p2418
aI4320
aI90
aI1
aa(lp2419
S'401DE0630DSR.csv'
p2420
aI4320
aI90
aI1
aa(lp2421
S'401DE1230DSR.csv'
p2422
aI4320
aI90
aI1
aa(lp2423
S'401DW0060DES.csv'
p2424
aI4320
aI90
aI1
aa(lp2425
S'401DW0210DEC.csv'
p2426
aI4320
aI90
aI1
aa(lp2427
S'401DE0340DWC.csv'
p2428
aI4320
aI90
aI1
aa(lp2429
S'401DE0990DWR.csv'
p2430
aI4320
aI90
aI1
aa(lp2431
S'401DE0110DEC.csv'
p2432
aI4320
aI90
aI1
aa(lp2433
S'404DN0031DSH.csv'
p2434
aI4320
aI90
aI1
aa(lp2435
S'QEWDE0030DWS.csv'
p2436
aI4320
aI90
aI1
aa(lp2437
S'401DE0560DNR.csv'
p2438
aI4320
aI90
aI1
aa(lp2439
S'401DE0480DEC.csv'
p2440
aI4320
aI90
aI1
aa(lp2441
S'QEWDE0370DWS.csv'
p2442
aI4320
aI90
aI1
aa(lp2443
S'401DE0240DEC.csv'
p2444
aI4320
aI90
aI1
aa(lp2445
S'QEWDE0440DNR.csv'
p2446
aI4320
aI90
aI1
aa(lp2447
S'401DW0110DEC.csv'
p2448
aI4320
aI90
aI1
aa(lp2449
S'QEWDS0050DNS.csv'
p2450
aI4320
aI90
aI1
aa(lp2451
S'QEWDE0111DES.csv'
p2452
aI4320
aI90
aI1
aa(lp2453
S'QEWDE0151DWS.csv'
p2454
aI4320
aI90
aI1
aa(lp2455
S'401DW0040DWE.csv'
p2456
aI4320
aI90
aI1
aa(lp2457
S'QEWDN0010DSR.csv'
p2458
aI4320
aI90
aI1
aa(lp2459
S'QEWDS0010DSS.csv'
p2460
aI4320
aI90
aI1
aa(lp2461
S'QEWDE0465DWS.csv'
p2462
aI4320
aI90
aI1
aa(lp2463
S'400DN0020DNS.csv'
p2464
aI4320
aI90
aI1
aa(lp2465
S'QEWDS0140DNS.csv'
p2466
aI4320
aI90
aI1
aa(lp2467
S'401DW0240DWR.csv'
p2468
aI4320
aI90
aI1
aa(lp2469
S'400DN0010DNS.csv'
p2470
aI4320
aI90
aI1
aa(lp2471
S'QEWDE0121DES.csv'
p2472
aI4320
aI90
aI1
aa(lp2473
S'404DN0120DSS.csv'
p2474
aI4320
aI90
aI1
aa(lp2475
S'QEWDS0070DSS.csv'
p2476
aI4320
aI90
aI1
aa.